(iroutes
RouteInfo
p1
(dp2
S'is_split_by_dir'
p3
I01
sS'name'
p4
S'greenwood'
p5
sS'datazoom_to_dir_to_routepts'
p6
(dp7
I0
(dp8
I0
(lp9
(igeom
LatLng
p10
(dp11
S'lat'
p12
F43.682560909999999
sS'lng'
p13
F-79.33039248
sba(igeom
LatLng
p14
(dp15
g12
F43.682021669999997
sg13
F-79.329759480000007
sba(igeom
LatLng
p16
(dp17
g12
F43.681478540000001
sg13
F-79.332329029999997
sba(igeom
LatLng
p18
(dp19
g12
F43.664394690000002
sg13
F-79.325258730000002
sba(igeom
LatLng
p20
(dp21
g12
F43.663246020000003
sg13
F-79.330236909999996
sba(igeom
LatLng
p22
(dp23
g12
F43.661569550000003
sg13
F-79.329485890000001
sba(igeom
LatLng
p24
(dp25
g12
F43.662803629999999
sg13
F-79.324067830000004
sbasI1
(lp26
(igeom
LatLng
p27
(dp28
g12
F43.682560909999999
sg13
F-79.33039248
sba(igeom
LatLng
p29
(dp30
g12
F43.682021669999997
sg13
F-79.329759480000007
sba(igeom
LatLng
p31
(dp32
g12
F43.681478540000001
sg13
F-79.332329029999997
sba(igeom
LatLng
p33
(dp34
g12
F43.664394690000002
sg13
F-79.325258730000002
sba(igeom
LatLng
p35
(dp36
g12
F43.665651990000001
sg13
F-79.319701190000004
sba(igeom
LatLng
p37
(dp38
g12
F43.664239469999998
sg13
F-79.319100379999995
sba(igeom
LatLng
p39
(dp40
g12
F43.662803629999999
sg13
F-79.324067830000004
sbassN(dp41
I0
(lp42
g10
a(igeom
LatLng
p43
(dp44
g12
F43.682642379999997
sg13
F-79.330035749999993
sbag14
ag16
a(igeom
LatLng
p45
(dp46
g12
F43.680473749999997
sg13
F-79.331953530000007
sba(igeom
LatLng
p47
(dp48
g12
F43.68013234
sg13
F-79.331792590000006
sba(igeom
LatLng
p49
(dp50
g12
F43.676392309999997
sg13
F-79.330258369999996
sba(igeom
LatLng
p51
(dp52
g12
F43.673451329999999
sg13
F-79.329067469999998
sba(igeom
LatLng
p53
(dp54
g12
F43.670921509999999
sg13
F-79.327983860000003
sbag18
a(igeom
LatLng
p55
(dp56
g12
F43.664337205623092
sg13
F-79.325538139006738
sba(igeom
LatLng
p57
(dp58
g12
F43.66426706
sg13
F-79.325811861111106
sba(igeom
LatLng
p59
(dp60
g12
F43.66420957562309
sg13
F-79.326091270111789
sba(igeom
LatLng
p61
(dp62
g12
F43.664139429999999
sg13
F-79.326364992222224
sba(igeom
LatLng
p63
(dp64
g12
F43.664081945623096
sg13
F-79.326644401216853
sba(igeom
LatLng
p65
(dp66
g12
F43.664011800000004
sg13
F-79.326918123333328
sba(igeom
LatLng
p67
(dp68
g12
F43.663954315623087
sg13
F-79.327197532321932
sba(igeom
LatLng
p69
(dp70
g12
F43.663884170000003
sg13
F-79.327471254444447
sba(igeom
LatLng
p71
(dp72
g12
F43.663826685623093
sg13
F-79.327750663426983
sba(igeom
LatLng
p73
(dp74
g12
F43.663756540000001
sg13
F-79.328024385555551
sba(igeom
LatLng
p75
(dp76
g12
F43.663699055623091
sg13
F-79.328303794532061
sba(igeom
LatLng
p77
(dp78
g12
F43.66362891
sg13
F-79.32857751666667
sba(igeom
LatLng
p79
(dp80
g12
F43.66357142562309
sg13
F-79.328856925637126
sba(igeom
LatLng
p81
(dp82
g12
F43.663501280000006
sg13
F-79.329130647777774
sba(igeom
LatLng
p83
(dp84
g12
F43.663443795623088
sg13
F-79.329410056742176
sba(igeom
LatLng
p85
(dp86
g12
F43.663373650000004
sg13
F-79.329683778888892
sba(igeom
LatLng
p87
(dp88
g12
F43.663316165623087
sg13
F-79.329963187847255
sbag20
a(igeom
LatLng
p89
(dp90
g12
F43.663034404305527
sg13
F-79.330151783552935
sba(igeom
LatLng
p91
(dp92
g12
F43.662826902500001
sg13
F-79.330049154999998
sba(igeom
LatLng
p93
(dp94
g12
F43.662615286805519
sg13
F-79.329964028491858
sba(igeom
LatLng
p95
(dp96
g12
F43.662407784999999
sg13
F-79.329861399999999
sba(igeom
LatLng
p97
(dp98
g12
F43.662196169305524
sg13
F-79.329776273430753
sba(igeom
LatLng
p99
(dp100
g12
F43.661988667500005
sg13
F-79.329673645
sba(igeom
LatLng
p101
(dp102
g12
F43.661777051805515
sg13
F-79.329588518369675
sbag22
a(igeom
LatLng
p103
(dp104
g12
F43.661628170955787
sg13
F-79.329197885624524
sba(igeom
LatLng
p105
(dp106
g12
F43.661699453157894
sg13
F-79.32891556789474
sba(igeom
LatLng
p107
(dp108
g12
F43.661758074113678
sg13
F-79.328627563513095
sba(igeom
LatLng
p109
(dp110
g12
F43.661829356315792
sg13
F-79.328345245789478
sba(igeom
LatLng
p111
(dp112
g12
F43.661887977271576
sg13
F-79.32805724140168
sba(igeom
LatLng
p113
(dp114
g12
F43.661959259473683
sg13
F-79.327774923684217
sba(igeom
LatLng
p115
(dp116
g12
F43.662017880429474
sg13
F-79.327486919290266
sba(igeom
LatLng
p117
(dp118
g12
F43.662089162631581
sg13
F-79.327204601578956
sba(igeom
LatLng
p119
(dp120
g12
F43.662147783587372
sg13
F-79.326916597178837
sba(igeom
LatLng
p121
(dp122
g12
F43.662219065789472
sg13
F-79.32663427947368
sba(igeom
LatLng
p123
(dp124
g12
F43.662277686745263
sg13
F-79.326346275067422
sba(igeom
LatLng
p125
(dp126
g12
F43.66234896894737
sg13
F-79.326063957368419
sba(igeom
LatLng
p127
(dp128
g12
F43.662407589903161
sg13
F-79.325775952956008
sba(igeom
LatLng
p129
(dp130
g12
F43.662478872105261
sg13
F-79.325493635263157
sba(igeom
LatLng
p131
(dp132
g12
F43.662537493061052
sg13
F-79.325205630844593
sba(igeom
LatLng
p133
(dp134
g12
F43.662608775263159
sg13
F-79.324923313157896
sba(igeom
LatLng
p135
(dp136
g12
F43.66266739621895
sg13
F-79.324635308733178
sba(igeom
LatLng
p137
(dp138
g12
F43.66273867842105
sg13
F-79.324352991052635
sbag24
asI1
(lp139
g27
a(igeom
LatLng
p140
(dp141
g12
F43.682642379999997
sg13
F-79.330035749999993
sbag29
ag31
a(igeom
LatLng
p142
(dp143
g12
F43.680473749999997
sg13
F-79.331953530000007
sba(igeom
LatLng
p144
(dp145
g12
F43.68013234
sg13
F-79.331792590000006
sba(igeom
LatLng
p146
(dp147
g12
F43.676392309999997
sg13
F-79.330258369999996
sba(igeom
LatLng
p148
(dp149
g12
F43.673451329999999
sg13
F-79.329067469999998
sba(igeom
LatLng
p150
(dp151
g12
F43.670921509999999
sg13
F-79.327983860000003
sbag33
ag35
ag37
a(igeom
LatLng
p152
(dp153
g12
F43.663845350000003
sg13
F-79.319455379999994
sbag39
assI2
(dp154
I0
(lp155
g10
ag43
ag14
ag16
ag18
ag20
ag22
ag24
asI1
(lp156
g27
ag140
ag29
ag31
ag33
ag35
ag37
ag152
ag39
assI3
(dp157
I0
(lp158
g10
ag43
ag14
ag16
ag45
ag47
ag51
ag53
ag18
ag20
ag22
ag24
asI1
(lp159
g27
ag140
ag29
ag31
ag142
ag144
ag148
ag150
ag33
ag35
ag37
ag152
ag39
assI1
(dp160
I0
(lp161
g10
ag43
ag14
ag16
ag18
ag20
ag22
ag24
asI1
(lp162
g27
ag140
ag29
ag31
ag33
ag35
ag37
ag152
ag39
asssS'snapgraph'
p163
ccopy_reg
_reconstructor
p164
(csnapgraph
SnapGraph
p165
c__builtin__
object
p166
NtRp167
(dp168
S'use_vert_only_floyd_warshall'
p169
I00
sS'plinename2pts'
p170
(dp171
S'1'
g139
sS'0'
g42
ssg4
NsS'use_floyd_warshall'
p172
I00
sS'plinename_to_ptidx_to_mapl'
p173
(dp174
S'1'
(lp175
I0
aF30.065596252086802
aF102.53225271198251
aF317.68679441031327
aF433.35833651508966
aF473.44450705021893
aF906.9912178417934
aF1247.5599501517449
aF1541.8900078291997
aF2299.5943502643622
aF2767.7172260057964
aF2931.9574431533151
aF2984.2348617404464
aF3372.7022610934578
asS'0'
(lp176
I0
aF30.065596252086802
aF102.53225271198251
aF317.68679441031327
aF433.35833651508966
aF473.44450705021893
aF906.9912178417934
aF1247.5599501517449
aF1541.8900078291997
aF2299.5943502643622
aF2322.9476969861821
aF2346.2930925241599
aF2369.6464847117791
aF2392.9919248088572
aF2416.3453624639483
aF2439.6908471171441
aF2463.0443302411686
aF2486.3898594520842
aF2509.7433880414087
aF2533.0889618092256
aF2556.4425358668923
aF2579.7881541917563
aF2603.1417737166803
aF2626.487436598029
aF2649.8411015883335
aF2673.1868090282405
aF2696.5405194865816
aF2719.8862714811007
aF2744.3792804365339
aF2768.8711636879175
aF2793.364187367089
aF2817.8560883679888
aF2842.3491267684908
aF2866.8410455195012
aF2891.3340986438916
aF2915.8260351446202
aF2939.8797083523823
aF2963.9198490211334
aF2987.9734744788648
aF3012.0135683115409
aF3036.0671460181475
aF3060.1071930161174
aF3084.160722970697
aF3108.2007231331309
aF3132.2542053373518
aF3156.2941586639195
aF3180.3475931157041
aF3204.3874996077402
aF3228.4408863069789
aF3252.4807459629551
aF3276.5340849105232
aF3300.5738977310411
aF3324.6271889268296
aF3348.666954911826
aF3372.702066436475
assS'si_linesegaddrs_by_gridsquareidx'
p177
(lp178
c__builtin__
set
p179
((ltRp180
ag179
((ltRp181
ag179
((lp182
g164
(csnapgraph
PtAddr
p183
g166
NtRp184
(dp185
S'plinename'
p186
S'0'
sS'ptidx'
p187
I33
sbag164
(g183
g166
NtRp188
(dp189
g186
S'0'
sg187
I34
sbag164
(g183
g166
NtRp190
(dp191
g186
S'0'
sg187
I35
sbag164
(g183
g166
NtRp192
(dp193
g186
S'0'
sg187
I36
sbatRp194
ag179
((lp195
g164
(g183
g166
NtRp196
(dp197
g186
S'0'
sg187
I39
sbag164
(g183
g166
NtRp198
(dp199
g186
S'0'
sg187
I40
sbag192
ag164
(g183
g166
NtRp200
(dp201
g186
S'0'
sg187
I37
sbag164
(g183
g166
NtRp202
(dp203
g186
S'0'
sg187
I38
sbatRp204
ag179
((lp205
g198
ag164
(g183
g166
NtRp206
(dp207
g186
S'0'
sg187
I41
sbatRp208
ag179
((ltRp209
ag179
((ltRp210
ag179
((ltRp211
ag179
((ltRp212
ag179
((ltRp213
ag179
((ltRp214
ag179
((ltRp215
ag179
((ltRp216
ag179
((ltRp217
ag179
((lp218
g164
(g183
g166
NtRp219
(dp220
g186
S'0'
sg187
I28
sbag164
(g183
g166
NtRp221
(dp222
g186
S'0'
sg187
I29
sbag164
(g183
g166
NtRp223
(dp224
g186
S'0'
sg187
I30
sbag164
(g183
g166
NtRp225
(dp226
g186
S'0'
sg187
I31
sbag164
(g183
g166
NtRp227
(dp228
g186
S'0'
sg187
I32
sbag184
atRp229
ag179
((ltRp230
ag179
((lp231
g206
ag164
(g183
g166
NtRp232
(dp233
g186
S'0'
sg187
I42
sbag164
(g183
g166
NtRp234
(dp235
g186
S'0'
sg187
I43
sbag164
(g183
g166
NtRp236
(dp237
g186
S'0'
sg187
I44
sbatRp238
ag179
((lp239
g164
(g183
g166
NtRp240
(dp241
g186
S'0'
sg187
I47
sbag164
(g183
g166
NtRp242
(dp243
g186
S'0'
sg187
I48
sbag164
(g183
g166
NtRp244
(dp245
g186
S'0'
sg187
I49
sbag236
ag164
(g183
g166
NtRp246
(dp247
g186
S'0'
sg187
I45
sbag164
(g183
g166
NtRp248
(dp249
g186
S'0'
sg187
I46
sbatRp250
ag179
((lp251
g244
ag164
(g183
g166
NtRp252
(dp253
g186
S'0'
sg187
I50
sbag164
(g183
g166
NtRp254
(dp255
g186
S'0'
sg187
I51
sbag164
(g183
g166
NtRp256
(dp257
g186
S'0'
sg187
I52
sbag164
(g183
g166
NtRp258
(dp259
g186
S'0'
sg187
I53
sbatRp260
ag179
((lp261
g164
(g183
g166
NtRp262
(dp263
g186
S'1'
sg187
I12
sbag258
atRp264
ag179
((lp265
g262
atRp266
ag179
((lp267
g262
atRp268
ag179
((lp269
g262
atRp270
ag179
((ltRp271
ag179
((ltRp272
ag179
((ltRp273
ag179
((lp274
g164
(g183
g166
NtRp275
(dp276
g186
S'0'
sg187
I23
sbag164
(g183
g166
NtRp277
(dp278
g186
S'0'
sg187
I24
sbag164
(g183
g166
NtRp279
(dp280
g186
S'0'
sg187
I25
sbag164
(g183
g166
NtRp281
(dp282
g186
S'0'
sg187
I26
sbag164
(g183
g166
NtRp283
(dp284
g186
S'0'
sg187
I27
sbag219
atRp285
ag179
((lp286
g275
ag164
(g183
g166
NtRp287
(dp288
g186
S'0'
sg187
I19
sbag164
(g183
g166
NtRp289
(dp290
g186
S'0'
sg187
I20
sbag164
(g183
g166
NtRp291
(dp292
g186
S'0'
sg187
I21
sbag164
(g183
g166
NtRp293
(dp294
g186
S'0'
sg187
I22
sbatRp295
ag179
((ltRp296
ag179
((ltRp297
ag179
((ltRp298
ag179
((lp299
g262
atRp300
ag179
((lp301
g262
atRp302
ag179
((lp303
g262
atRp304
ag179
((lp305
g262
atRp306
ag179
((ltRp307
ag179
((ltRp308
ag179
((ltRp309
ag179
((ltRp310
ag179
((lp311
g164
(g183
g166
NtRp312
(dp313
g186
S'1'
sg187
I8
sbag164
(g183
g166
NtRp314
(dp315
g186
S'0'
sg187
I8
sbag164
(g183
g166
NtRp316
(dp317
g186
S'0'
sg187
I18
sbag287
atRp318
ag179
((lp319
g164
(g183
g166
NtRp320
(dp321
g186
S'0'
sg187
I15
sbag164
(g183
g166
NtRp322
(dp323
g186
S'0'
sg187
I16
sbag164
(g183
g166
NtRp324
(dp325
g186
S'0'
sg187
I17
sbag316
ag312
ag314
ag164
(g183
g166
NtRp326
(dp327
g186
S'0'
sg187
I14
sbatRp328
ag179
((lp329
g312
ag314
ag164
(g183
g166
NtRp330
(dp331
g186
S'0'
sg187
I9
sbag164
(g183
g166
NtRp332
(dp333
g186
S'0'
sg187
I10
sbag164
(g183
g166
NtRp334
(dp335
g186
S'0'
sg187
I11
sbag164
(g183
g166
NtRp336
(dp337
g186
S'0'
sg187
I12
sbag164
(g183
g166
NtRp338
(dp339
g186
S'0'
sg187
I13
sbag326
atRp340
ag179
((lp341
g312
ag164
(g183
g166
NtRp342
(dp343
g186
S'1'
sg187
I9
sbag330
ag314
atRp344
ag179
((lp345
g342
ag262
atRp346
ag179
((lp347
g342
ag262
atRp348
ag179
((lp349
g342
ag262
atRp350
ag179
((lp351
g342
ag164
(g183
g166
NtRp352
(dp353
g186
S'1'
sg187
I10
sbag164
(g183
g166
NtRp354
(dp355
g186
S'1'
sg187
I11
sbag262
atRp356
ag179
((lp357
g352
ag354
atRp358
ag179
((ltRp359
ag179
((ltRp360
ag179
((ltRp361
ag179
((lp362
g312
ag314
atRp363
ag179
((lp364
g312
ag314
atRp365
ag179
((lp366
g312
ag314
atRp367
ag179
((lp368
g312
ag342
ag314
atRp369
ag179
((lp370
g342
atRp371
ag179
((lp372
g342
atRp373
ag179
((lp374
g342
atRp375
ag179
((lp376
g342
ag352
atRp377
ag179
((lp378
g352
atRp379
ag179
((ltRp380
ag179
((ltRp381
ag179
((ltRp382
ag179
((lp383
g312
ag314
atRp384
ag179
((lp385
g312
ag314
atRp386
ag179
((lp387
g312
ag314
atRp388
ag179
((lp389
g312
ag342
ag314
atRp390
ag179
((lp391
g342
atRp392
ag179
((lp393
g342
atRp394
ag179
((lp395
g342
atRp396
ag179
((lp397
g342
ag352
atRp398
ag179
((lp399
g352
atRp400
ag179
((ltRp401
ag179
((ltRp402
ag179
((ltRp403
ag179
((lp404
g312
ag314
atRp405
ag179
((lp406
g312
ag314
atRp407
ag179
((lp408
g312
ag314
atRp409
ag179
((lp410
g312
ag314
atRp411
ag179
((ltRp412
ag179
((ltRp413
ag179
((ltRp414
ag179
((ltRp415
ag179
((ltRp416
ag179
((ltRp417
ag179
((ltRp418
ag179
((ltRp419
ag179
((lp420
g312
ag314
atRp421
ag179
((lp422
g312
ag314
atRp423
ag179
((lp424
g312
ag314
atRp425
ag179
((lp426
g312
ag314
atRp427
ag179
((ltRp428
ag179
((ltRp429
ag179
((ltRp430
ag179
((ltRp431
ag179
((ltRp432
ag179
((ltRp433
ag179
((ltRp434
ag179
((ltRp435
ag179
((lp436
g312
ag314
atRp437
ag179
((lp438
g312
ag314
atRp439
ag179
((lp440
g312
ag314
atRp441
ag179
((lp442
g312
ag314
atRp443
ag179
((ltRp444
ag179
((ltRp445
ag179
((ltRp446
ag179
((ltRp447
ag179
((ltRp448
ag179
((ltRp449
ag179
((ltRp450
ag179
((ltRp451
ag179
((lp452
g312
ag314
atRp453
ag179
((lp454
g312
ag314
atRp455
ag179
((lp456
g312
ag314
atRp457
ag179
((lp458
g312
ag314
atRp459
ag179
((ltRp460
ag179
((ltRp461
ag179
((ltRp462
ag179
((ltRp463
ag179
((ltRp464
ag179
((ltRp465
ag179
((ltRp466
ag179
((ltRp467
ag179
((lp468
g312
ag314
atRp469
ag179
((lp470
g312
ag314
atRp471
ag179
((lp472
g312
ag314
atRp473
ag179
((lp474
g312
ag314
atRp475
ag179
((ltRp476
ag179
((ltRp477
ag179
((ltRp478
ag179
((ltRp479
ag179
((ltRp480
ag179
((ltRp481
ag179
((ltRp482
ag179
((ltRp483
ag179
((lp484
g312
ag164
(g183
g166
NtRp485
(dp486
g186
S'0'
sg187
I7
sbag314
ag164
(g183
g166
NtRp487
(dp488
g186
S'1'
sg187
I7
sbatRp489
ag179
((lp490
g312
ag314
atRp491
ag179
((lp492
g312
ag314
atRp493
ag179
((lp494
g312
ag314
atRp495
ag179
((ltRp496
ag179
((ltRp497
ag179
((ltRp498
ag179
((ltRp499
ag179
((ltRp500
ag179
((ltRp501
ag179
((ltRp502
ag179
((ltRp503
ag179
((lp504
g485
ag487
atRp505
ag179
((ltRp506
ag179
((ltRp507
ag179
((ltRp508
ag179
((ltRp509
ag179
((ltRp510
ag179
((ltRp511
ag179
((ltRp512
ag179
((ltRp513
ag179
((ltRp514
ag179
((ltRp515
ag179
((ltRp516
ag179
((lp517
g485
ag487
atRp518
ag179
((ltRp519
ag179
((ltRp520
ag179
((ltRp521
ag179
((ltRp522
ag179
((ltRp523
ag179
((ltRp524
ag179
((ltRp525
ag179
((ltRp526
ag179
((ltRp527
ag179
((ltRp528
ag179
((lp529
g164
(g183
g166
NtRp530
(dp531
g186
S'1'
sg187
I6
sbag164
(g183
g166
NtRp532
(dp533
g186
S'0'
sg187
I6
sbatRp534
ag179
((lp535
g485
ag532
ag530
ag487
atRp536
ag179
((ltRp537
ag179
((ltRp538
ag179
((ltRp539
ag179
((ltRp540
ag179
((ltRp541
ag179
((ltRp542
ag179
((ltRp543
ag179
((ltRp544
ag179
((ltRp545
ag179
((ltRp546
ag179
((lp547
g530
ag532
atRp548
ag179
((lp549
g530
ag532
atRp550
ag179
((ltRp551
ag179
((ltRp552
ag179
((ltRp553
ag179
((ltRp554
ag179
((ltRp555
ag179
((ltRp556
ag179
((ltRp557
ag179
((ltRp558
ag179
((ltRp559
ag179
((ltRp560
ag179
((lp561
g530
ag532
atRp562
ag179
((lp563
g530
ag532
atRp564
ag179
((ltRp565
ag179
((ltRp566
ag179
((ltRp567
ag179
((ltRp568
ag179
((ltRp569
ag179
((ltRp570
ag179
((ltRp571
ag179
((ltRp572
ag179
((lp573
g164
(g183
g166
NtRp574
(dp575
g186
S'1'
sg187
I5
sbag164
(g183
g166
NtRp576
(dp577
g186
S'0'
sg187
I5
sbatRp578
ag179
((lp579
g574
ag576
atRp580
ag179
((lp581
g576
ag574
ag530
ag532
atRp582
ag179
((lp583
g530
ag532
atRp584
ag179
((ltRp585
ag179
((ltRp586
ag179
((ltRp587
ag179
((ltRp588
ag179
((ltRp589
ag179
((ltRp590
ag179
((ltRp591
ag179
((ltRp592
ag179
((lp593
g574
ag576
atRp594
ag179
((lp595
g574
ag576
atRp596
ag179
((lp597
g574
ag576
atRp598
ag179
((ltRp599
ag179
((ltRp600
ag179
((ltRp601
ag179
((ltRp602
ag179
((ltRp603
ag179
((ltRp604
ag179
((ltRp605
ag179
((ltRp606
ag179
((ltRp607
ag179
((lp608
g574
ag576
atRp609
ag179
((lp610
g574
ag576
atRp611
ag179
((lp612
g574
ag576
atRp613
ag179
((ltRp614
ag179
((ltRp615
ag179
((ltRp616
ag179
((ltRp617
ag179
((ltRp618
ag179
((ltRp619
ag179
((ltRp620
ag179
((ltRp621
ag179
((ltRp622
ag179
((lp623
g574
ag576
atRp624
ag179
((lp625
g574
ag576
atRp626
ag179
((lp627
g574
ag576
atRp628
ag179
((ltRp629
ag179
((ltRp630
ag179
((ltRp631
ag179
((ltRp632
ag179
((ltRp633
ag179
((ltRp634
ag179
((ltRp635
ag179
((ltRp636
ag179
((ltRp637
ag179
((lp638
g164
(g183
g166
NtRp639
(dp640
g186
S'1'
sg187
I4
sbag574
ag576
ag164
(g183
g166
NtRp641
(dp642
g186
S'0'
sg187
I4
sbatRp643
ag179
((lp644
g574
ag576
atRp645
ag179
((lp646
g574
ag576
atRp647
ag179
((ltRp648
ag179
((ltRp649
ag179
((ltRp650
ag179
((ltRp651
ag179
((ltRp652
ag179
((ltRp653
ag179
((ltRp654
ag179
((ltRp655
ag179
((ltRp656
ag179
((lp657
g164
(g183
g166
NtRp658
(dp659
g186
S'0'
sg187
I3
sbag164
(g183
g166
NtRp660
(dp661
g186
S'1'
sg187
I3
sbag639
ag641
atRp662
ag179
((ltRp663
ag179
((ltRp664
ag179
((ltRp665
ag179
((ltRp666
ag179
((ltRp667
ag179
((ltRp668
ag179
((ltRp669
ag179
((ltRp670
ag179
((ltRp671
ag179
((ltRp672
ag179
((ltRp673
ag179
((lp674
g164
(g183
g166
NtRp675
(dp676
g186
S'0'
sg187
I2
sbag164
(g183
g166
NtRp677
(dp678
g186
S'1'
sg187
I2
sbag660
ag658
atRp679
ag179
((lp680
g677
ag675
atRp681
ag179
((lp682
g164
(g183
g166
NtRp683
(dp684
g186
S'1'
sg187
I1
sbag677
ag675
ag164
(g183
g166
NtRp685
(dp686
g186
S'0'
sg187
I1
sbatRp687
ag179
((ltRp688
ag179
((ltRp689
ag179
((ltRp690
ag179
((ltRp691
ag179
((ltRp692
ag179
((ltRp693
ag179
((ltRp694
ag179
((ltRp695
ag179
((ltRp696
ag179
((ltRp697
ag179
((ltRp698
ag179
((lp699
g164
(g183
g166
NtRp700
(dp701
g186
S'1'
sg187
I0
sbag683
ag685
ag164
(g183
g166
NtRp702
(dp703
g186
S'0'
sg187
I0
sbatRp704
ag179
((ltRp705
ag179
((ltRp706
ag179
((ltRp707
ag179
((ltRp708
ag179
((ltRp709
ag179
((ltRp710
ag179
((ltRp711
ag179
((ltRp712
ag179
((ltRp713
asS'si_gridsquaresys'
p714
g164
(cgrid
GridSquareSystem
p715
g166
NtRp716
(dp717
S'lngstep'
p718
F0.00125
sS'southwest_gridsquare'
p719
g164
(cgrid
GridSquare
p720
g166
NtRp721
(dp722
S'sys'
p723
g716
sS'gridlat'
p724
I39
sS'gridlng'
p725
I100
sbsS'lngref'
p726
F-79.457939102255295
sS'latstep'
p727
F0.00087500000000000002
sS'latref'
p728
F43.626966968592633
sS'northeast_gridsquare'
p729
g164
(g720
g166
NtRp730
(dp731
g723
g716
sg724
I63
sg725
I111
sbsbsS'si_plinename_to_gridsquareidxes'
p732
(dp733
S'1'
g179
((lp734
I19
aI20
aI21
aI22
aI31
aI32
aI33
aI34
aI39
aI40
aI41
aI42
aI43
aI44
aI45
aI46
aI47
aI51
aI52
aI53
aI54
aI55
aI56
aI57
aI58
aI59
aI63
aI64
aI65
aI66
aI67
aI68
aI69
aI70
aI71
aI75
aI76
aI77
aI78
aI87
aI88
aI89
aI90
aI99
aI100
aI101
aI102
aI111
aI112
aI113
aI114
aI123
aI124
aI125
aI126
aI135
aI136
aI137
aI138
aI147
aI159
aI170
aI171
aI182
aI183
aI194
aI195
aI204
aI205
aI206
aI207
aI216
aI217
aI218
aI228
aI229
aI230
aI240
aI241
aI242
aI252
aI253
aI254
aI264
aI276
aI277
aI278
aI290
atRp735
sS'0'
g179
((lp736
I2
aI3
aI4
aI135
aI264
aI137
aI138
aI66
aI77
aI16
aI88
aI18
aI147
aI276
aI277
aI278
aI89
aI26
aI27
aI90
aI159
aI112
aI290
aI39
aI40
aI41
aI170
aI171
aI114
aI125
aI136
aI51
aI52
aI53
aI182
aI183
aI102
aI63
aI64
aI65
aI194
aI195
aI54
aI100
aI113
aI76
aI75
aI204
aI205
aI206
aI207
aI14
aI78
aI87
aI216
aI217
aI218
aI19
aI101
aI99
aI228
aI229
aI230
aI17
aI124
aI111
aI240
aI241
aI242
aI42
aI126
aI123
aI252
aI253
aI254
atRp737
ssbsS'version'
p738
I0
sS'datazoom_to_dir_to_routeptaddr_to_mofr'
p739
(dp740
I0
(lp741
(lp742
I0
aI102
aI317
aI2299
aI2719
aI2915
aI3372
aa(lp743
I0
aI102
aI317
aI2299
aI2767
aI2931
aI3372
aasN(lp744
(lp745
I0
aF30.065596252086802
aF102.53225271198251
aF317.68679441031327
aF433.35833651508966
aF473.44450705021893
aF906.9912178417934
aF1247.5599501517449
aF1541.8900078291997
aF2299.5943502643622
aF2322.9476969861821
aF2346.2930925241599
aF2369.6464847117791
aF2392.9919248088572
aF2416.3453624639483
aF2439.6908471171441
aF2463.0443302411686
aF2486.3898594520842
aF2509.7433880414087
aF2533.0889618092256
aF2556.4425358668923
aF2579.7881541917563
aF2603.1417737166803
aF2626.487436598029
aF2649.8411015883335
aF2673.1868090282405
aF2696.5405194865816
aF2719.8862714811007
aF2744.3792804365339
aF2768.8711636879175
aF2793.364187367089
aF2817.8560883679888
aF2842.3491267684908
aF2866.8410455195012
aF2891.3340986438916
aF2915.8260351446202
aF2939.8797083523823
aF2963.9198490211334
aF2987.9734744788648
aF3012.0135683115409
aF3036.0671460181475
aF3060.1071930161174
aF3084.160722970697
aF3108.2007231331309
aF3132.2542053373518
aF3156.2941586639195
aF3180.3475931157041
aF3204.3874996077402
aF3228.4408863069789
aF3252.4807459629551
aF3276.5340849105232
aF3300.5738977310411
aF3324.6271889268296
aF3348.666954911826
aF3372.702066436475
aa(lp746
I0
aF30.065596252086802
aF102.53225271198251
aF317.68679441031327
aF433.35833651508966
aF473.44450705021893
aF906.9912178417934
aF1247.5599501517449
aF1541.8900078291997
aF2299.5943502643622
aF2767.7172260057964
aF2931.9574431533151
aF2984.2348617404464
aF3372.7022610934578
aasI2
(lp747
(lp748
I0
aI30
aI102
aI317
aI2299
aI2719
aI2915
aI3372
aa(lp749
I0
aI30
aI102
aI317
aI2299
aI2767
aI2931
aI2984
aI3372
aasI3
(lp750
(lp751
I0
aI30
aI102
aI317
aI433
aI473
aI1247
aI1541
aI2299
aI2719
aI2915
aI3372
aa(lp752
I0
aI30
aI102
aI317
aI433
aI473
aI1247
aI1541
aI2299
aI2767
aI2931
aI2984
aI3372
aasI1
(lp753
(lp754
I0
aI30
aI102
aI317
aI2299
aI2719
aI2915
aI3372
aa(lp755
I0
aI30
aI102
aI317
aI2299
aI2767
aI2931
aI2984
aI3372
aassb.