(iroutes
RouteInfo
p1
(dp2
S'is_split_by_dir'
p3
I01
sS'name'
p4
S'stclair'
p5
sS'datazoom_to_dir_to_routepts'
p6
(dp7
I0
(dp8
I0
(lp9
(igeom
LatLng
p10
(dp11
S'lat'
p12
F43.67201
sS'lng'
p13
F-79.47157
sba(igeom
LatLng
p14
(dp15
g12
F43.688122
sg13
F-79.391345000000001
sbasI1
(lp16
(igeom
LatLng
p17
(dp18
g12
F43.67201
sg13
F-79.47157
sba(igeom
LatLng
p19
(dp20
g12
F43.688122
sg13
F-79.391345000000001
sbassN(dp21
I0
(lp22
g10
a(igeom
LatLng
p23
(dp24
g12
F43.671827
sg13
F-79.471644999999995
sba(igeom
LatLng
p25
(dp26
g12
F43.671700000000001
sg13
F-79.471500000000006
sba(igeom
LatLng
p27
(dp28
g12
F43.671787999999999
sg13
F-79.471123000000006
sba(igeom
LatLng
p29
(dp30
g12
F43.672960000000003
sg13
F-79.465765000000005
sba(igeom
LatLng
p31
(dp32
g12
F43.674115999999998
sg13
F-79.460342999999995
sba(igeom
LatLng
p33
(dp34
g12
F43.675319000000002
sg13
F-79.454725999999994
sba(igeom
LatLng
p35
(dp36
g12
F43.676630000000003
sg13
F-79.449045999999996
sba(igeom
LatLng
p37
(dp38
g12
F43.679586999999998
sg13
F-79.435704999999999
sba(igeom
LatLng
p39
(dp40
g12
F43.681052999999999
sg13
F-79.428887000000003
sba(igeom
LatLng
p41
(dp42
g12
F43.683155999999997
sg13
F-79.418270000000007
sba(igeom
LatLng
p43
(dp44
g12
F43.684111000000001
sg13
F-79.413359999999997
sba(igeom
LatLng
p45
(dp46
g12
F43.686633
sg13
F-79.401435000000006
sba(igeom
LatLng
p47
(dp48
g12
F43.687261999999997
sg13
F-79.397992000000002
sba(igeom
LatLng
p49
(dp50
g12
F43.688091999999997
sg13
F-79.394120999999998
sba(igeom
LatLng
p51
(dp52
g12
F43.688291
sg13
F-79.393162000000004
sba(igeom
LatLng
p53
(dp54
g12
F43.687888000000001
sg13
F-79.392855999999995
sba(igeom
LatLng
p55
(dp56
g12
F43.687803000000002
sg13
F-79.392776999999995
sba(igeom
LatLng
p57
(dp58
g12
F43.687829999999998
sg13
F-79.392353999999997
sba(igeom
LatLng
p59
(dp60
g12
F43.688039000000003
sg13
F-79.391379000000001
sbag14
asI1
(lp61
g17
a(igeom
LatLng
p62
(dp63
g12
F43.672097999999998
sg13
F-79.471532999999994
sba(igeom
LatLng
p64
(dp65
g12
F43.672148999999997
sg13
F-79.471361999999999
sba(igeom
LatLng
p66
(dp67
g12
F43.672066999999998
sg13
F-79.471228999999994
sba(igeom
LatLng
p68
(dp69
g12
F43.671995971120708
sg13
F-79.471208666116809
sba(igeom
LatLng
p70
(dp71
g12
F43.671927499999995
sg13
F-79.471176
sba(igeom
LatLng
p72
(dp73
g12
F43.671856471120719
sg13
F-79.471155666102462
sba(igeom
LatLng
p74
(dp75
g12
F43.671787999999999
sg13
F-79.471123000000006
sba(igeom
LatLng
p76
(dp77
g12
F43.672960000000003
sg13
F-79.465765000000005
sba(igeom
LatLng
p78
(dp79
g12
F43.674115999999998
sg13
F-79.460342999999995
sba(igeom
LatLng
p80
(dp81
g12
F43.675319000000002
sg13
F-79.454725999999994
sba(igeom
LatLng
p82
(dp83
g12
F43.676630000000003
sg13
F-79.449045999999996
sba(igeom
LatLng
p84
(dp85
g12
F43.679586999999998
sg13
F-79.435704999999999
sba(igeom
LatLng
p86
(dp87
g12
F43.681052999999999
sg13
F-79.428887000000003
sba(igeom
LatLng
p88
(dp89
g12
F43.683155999999997
sg13
F-79.418270000000007
sba(igeom
LatLng
p90
(dp91
g12
F43.684111000000001
sg13
F-79.413359999999997
sba(igeom
LatLng
p92
(dp93
g12
F43.686633
sg13
F-79.401435000000006
sba(igeom
LatLng
p94
(dp95
g12
F43.687261999999997
sg13
F-79.397992000000002
sba(igeom
LatLng
p96
(dp97
g12
F43.688091999999997
sg13
F-79.394120999999998
sba(igeom
LatLng
p98
(dp99
g12
F43.688291
sg13
F-79.393162000000004
sba(igeom
LatLng
p100
(dp101
g12
F43.688360479112774
sg13
F-79.392781909850711
sba(igeom
LatLng
p102
(dp103
g12
F43.688440499999999
sg13
F-79.392405999999994
sba(igeom
LatLng
p104
(dp105
g12
F43.688509979112744
sg13
F-79.392025909845501
sba(igeom
LatLng
p106
(dp107
g12
F43.688589999999998
sg13
F-79.391649999999998
sba(igeom
LatLng
p108
(dp109
g12
F43.688488999999997
sg13
F-79.391456000000005
sba(igeom
LatLng
p110
(dp111
g12
F43.688178999999998
sg13
F-79.391321000000005
sbag19
assI2
(dp112
I0
(lp113
g10
ag23
ag25
ag33
ag35
ag39
ag43
ag45
ag47
ag51
ag55
ag59
ag14
asI1
(lp114
g17
ag62
ag64
ag66
ag74
ag80
ag82
ag86
ag90
ag92
ag94
ag106
ag108
ag19
assI3
(dp115
I0
(lp116
g10
ag23
ag25
ag29
ag33
ag35
ag37
ag39
ag41
ag43
ag45
ag47
ag51
ag55
ag57
ag59
ag14
asI1
(lp117
g17
ag62
ag64
ag66
ag74
ag76
ag80
ag82
ag84
ag86
ag88
ag90
ag92
ag94
ag96
ag106
ag108
ag110
ag19
assI1
(dp118
I0
(lp119
g10
ag25
ag39
ag45
ag51
ag55
ag14
asI1
(lp120
g17
ag64
ag74
ag86
ag92
ag106
ag19
asssS'snapgraph'
p121
ccopy_reg
_reconstructor
p122
(csnapgraph
SnapGraph
p123
c__builtin__
object
p124
NtRp125
(dp126
S'use_vert_only_floyd_warshall'
p127
I00
sS'plinename2pts'
p128
(dp129
S'1'
g61
sS'0'
g22
ssg4
NsS'use_floyd_warshall'
p130
I00
sS'plinename_to_ptidx_to_mapl'
p131
(dp132
S'1'
(lp133
I0
aF10.221939891871251
aF25.090065433607325
aF39.137856385006273
aF47.198947229186189
aF55.248647716457569
aF63.309739562806925
aF71.359441665384779
aF521.31224749610067
aF975.67766342790651
aF1446.5464547530355
aF1925.775255410058
aF3047.2806552111815
aF3618.9620304665141
aF4503.6718274146551
aF4912.2988369639706
aF5910.7954006806385
aF6196.1783738154973
aF6520.6466688161745
aF6600.8235180543234
aF6632.3288108015322
aF6663.8190729968028
aF6695.3242923388543
aF6726.8144819048603
aF6746.0247759490294
aF6782.1437425919785
aF6788.765418932534
asS'0'
(lp134
I0
aF21.212071558835945
aF39.51654625998043
aF71.3599869748478
aF521.31279280556373
aF975.67820873736957
aF1446.5470000624987
aF1925.7758007195212
aF3047.2812005206442
aF3618.9625757759768
aF4503.6723727241178
aF4912.2993822734334
aF5910.7959459901012
aF6196.17891912496
aF6520.6472141256372
aF6600.8240633637861
aF6651.9174247602823
aF6663.2988514863764
aF6697.4240432042907
aF6779.1467696218151
aF6788.7669617168149
assS'si_linesegaddrs_by_gridsquareidx'
p135
(lp136
c__builtin__
set
p137
((lp138
g122
(csnapgraph
PtAddr
p139
g124
NtRp140
(dp141
S'plinename'
p142
S'0'
sS'ptidx'
p143
I2
sbag122
(g139
g124
NtRp144
(dp145
g142
S'0'
sg143
I0
sbag122
(g139
g124
NtRp146
(dp147
g142
S'0'
sg143
I1
sbag122
(g139
g124
NtRp148
(dp149
g142
S'1'
sg143
I0
sbag122
(g139
g124
NtRp150
(dp151
g142
S'1'
sg143
I1
sbag122
(g139
g124
NtRp152
(dp153
g142
S'1'
sg143
I2
sbag122
(g139
g124
NtRp154
(dp155
g142
S'1'
sg143
I3
sbag122
(g139
g124
NtRp156
(dp157
g142
S'1'
sg143
I4
sbag122
(g139
g124
NtRp158
(dp159
g142
S'1'
sg143
I5
sbag122
(g139
g124
NtRp160
(dp161
g142
S'1'
sg143
I6
sbag122
(g139
g124
NtRp162
(dp163
g142
S'1'
sg143
I7
sbag122
(g139
g124
NtRp164
(dp165
g142
S'0'
sg143
I3
sbatRp166
ag137
((lp167
g164
ag162
atRp168
ag137
((lp169
g164
ag162
atRp170
ag137
((lp171
g164
ag162
atRp172
ag137
((lp173
g164
ag162
atRp174
ag137
((ltRp175
ag137
((ltRp176
ag137
((ltRp177
ag137
((ltRp178
ag137
((ltRp179
ag137
((ltRp180
ag137
((ltRp181
ag137
((ltRp182
ag137
((ltRp183
ag137
((ltRp184
ag137
((ltRp185
ag137
((ltRp186
ag137
((ltRp187
ag137
((ltRp188
ag137
((ltRp189
ag137
((ltRp190
ag137
((ltRp191
ag137
((ltRp192
ag137
((ltRp193
ag137
((ltRp194
ag137
((ltRp195
ag137
((ltRp196
ag137
((ltRp197
ag137
((ltRp198
ag137
((ltRp199
ag137
((ltRp200
ag137
((ltRp201
ag137
((ltRp202
ag137
((ltRp203
ag137
((ltRp204
ag137
((ltRp205
ag137
((ltRp206
ag137
((ltRp207
ag137
((ltRp208
ag137
((ltRp209
ag137
((ltRp210
ag137
((ltRp211
ag137
((ltRp212
ag137
((ltRp213
ag137
((ltRp214
ag137
((ltRp215
ag137
((ltRp216
ag137
((ltRp217
ag137
((ltRp218
ag137
((ltRp219
ag137
((ltRp220
ag137
((ltRp221
ag137
((ltRp222
ag137
((ltRp223
ag137
((ltRp224
ag137
((ltRp225
ag137
((ltRp226
ag137
((ltRp227
ag137
((ltRp228
ag137
((ltRp229
ag137
((ltRp230
ag137
((ltRp231
ag137
((ltRp232
ag137
((ltRp233
ag137
((ltRp234
ag137
((lp235
g164
ag162
atRp236
ag137
((lp237
g164
ag162
atRp238
ag137
((lp239
g164
ag162
atRp240
ag137
((lp241
g164
ag162
atRp242
ag137
((lp243
g122
(g139
g124
NtRp244
(dp245
g142
S'1'
sg143
I8
sbag164
ag122
(g139
g124
NtRp246
(dp247
g142
S'0'
sg143
I4
sbag162
atRp248
ag137
((lp249
g244
ag246
atRp250
ag137
((lp251
g244
ag246
atRp252
ag137
((lp253
g244
ag246
atRp254
ag137
((lp255
g244
ag246
atRp256
ag137
((lp257
g244
ag246
atRp258
ag137
((ltRp259
ag137
((ltRp260
ag137
((ltRp261
ag137
((ltRp262
ag137
((ltRp263
ag137
((ltRp264
ag137
((ltRp265
ag137
((ltRp266
ag137
((ltRp267
ag137
((ltRp268
ag137
((ltRp269
ag137
((ltRp270
ag137
((ltRp271
ag137
((ltRp272
ag137
((ltRp273
ag137
((ltRp274
ag137
((ltRp275
ag137
((ltRp276
ag137
((ltRp277
ag137
((ltRp278
ag137
((ltRp279
ag137
((ltRp280
ag137
((ltRp281
ag137
((ltRp282
ag137
((ltRp283
ag137
((ltRp284
ag137
((ltRp285
ag137
((ltRp286
ag137
((ltRp287
ag137
((ltRp288
ag137
((ltRp289
ag137
((ltRp290
ag137
((ltRp291
ag137
((ltRp292
ag137
((ltRp293
ag137
((ltRp294
ag137
((ltRp295
ag137
((ltRp296
ag137
((ltRp297
ag137
((ltRp298
ag137
((ltRp299
ag137
((ltRp300
ag137
((ltRp301
ag137
((ltRp302
ag137
((ltRp303
ag137
((ltRp304
ag137
((ltRp305
ag137
((ltRp306
ag137
((ltRp307
ag137
((ltRp308
ag137
((ltRp309
ag137
((ltRp310
ag137
((ltRp311
ag137
((ltRp312
ag137
((ltRp313
ag137
((ltRp314
ag137
((ltRp315
ag137
((ltRp316
ag137
((ltRp317
ag137
((lp318
g244
ag246
atRp319
ag137
((lp320
g244
ag246
atRp321
ag137
((lp322
g244
ag246
atRp323
ag137
((lp324
g244
ag246
atRp325
ag137
((lp326
g244
ag246
atRp327
ag137
((lp328
g244
ag122
(g139
g124
NtRp329
(dp330
g142
S'1'
sg143
I9
sbag246
ag122
(g139
g124
NtRp331
(dp332
g142
S'0'
sg143
I5
sbatRp333
ag137
((lp334
g329
ag331
atRp335
ag137
((lp336
g329
ag331
atRp337
ag137
((lp338
g329
ag331
atRp339
ag137
((lp340
g329
ag331
atRp341
ag137
((ltRp342
ag137
((ltRp343
ag137
((ltRp344
ag137
((ltRp345
ag137
((ltRp346
ag137
((ltRp347
ag137
((ltRp348
ag137
((ltRp349
ag137
((ltRp350
ag137
((ltRp351
ag137
((ltRp352
ag137
((ltRp353
ag137
((ltRp354
ag137
((ltRp355
ag137
((ltRp356
ag137
((ltRp357
ag137
((ltRp358
ag137
((ltRp359
ag137
((ltRp360
ag137
((ltRp361
ag137
((ltRp362
ag137
((ltRp363
ag137
((ltRp364
ag137
((ltRp365
ag137
((ltRp366
ag137
((ltRp367
ag137
((ltRp368
ag137
((ltRp369
ag137
((ltRp370
ag137
((ltRp371
ag137
((ltRp372
ag137
((ltRp373
ag137
((ltRp374
ag137
((ltRp375
ag137
((ltRp376
ag137
((ltRp377
ag137
((ltRp378
ag137
((ltRp379
ag137
((ltRp380
ag137
((ltRp381
ag137
((ltRp382
ag137
((ltRp383
ag137
((ltRp384
ag137
((ltRp385
ag137
((ltRp386
ag137
((ltRp387
ag137
((ltRp388
ag137
((ltRp389
ag137
((ltRp390
ag137
((ltRp391
ag137
((ltRp392
ag137
((ltRp393
ag137
((ltRp394
ag137
((ltRp395
ag137
((ltRp396
ag137
((ltRp397
ag137
((ltRp398
ag137
((ltRp399
ag137
((ltRp400
ag137
((ltRp401
ag137
((lp402
g329
ag331
atRp403
ag137
((lp404
g329
ag331
atRp405
ag137
((lp406
g329
ag331
atRp407
ag137
((lp408
g329
ag331
atRp409
ag137
((lp410
g329
ag331
atRp411
ag137
((ltRp412
ag137
((ltRp413
ag137
((ltRp414
ag137
((ltRp415
ag137
((ltRp416
ag137
((ltRp417
ag137
((ltRp418
ag137
((ltRp419
ag137
((ltRp420
ag137
((ltRp421
ag137
((ltRp422
ag137
((ltRp423
ag137
((ltRp424
ag137
((ltRp425
ag137
((ltRp426
ag137
((ltRp427
ag137
((ltRp428
ag137
((ltRp429
ag137
((ltRp430
ag137
((ltRp431
ag137
((ltRp432
ag137
((ltRp433
ag137
((ltRp434
ag137
((ltRp435
ag137
((ltRp436
ag137
((ltRp437
ag137
((ltRp438
ag137
((ltRp439
ag137
((ltRp440
ag137
((ltRp441
ag137
((ltRp442
ag137
((ltRp443
ag137
((ltRp444
ag137
((ltRp445
ag137
((ltRp446
ag137
((ltRp447
ag137
((ltRp448
ag137
((ltRp449
ag137
((ltRp450
ag137
((ltRp451
ag137
((ltRp452
ag137
((ltRp453
ag137
((ltRp454
ag137
((ltRp455
ag137
((ltRp456
ag137
((ltRp457
ag137
((ltRp458
ag137
((ltRp459
ag137
((ltRp460
ag137
((ltRp461
ag137
((ltRp462
ag137
((ltRp463
ag137
((ltRp464
ag137
((ltRp465
ag137
((ltRp466
ag137
((ltRp467
ag137
((ltRp468
ag137
((ltRp469
ag137
((ltRp470
ag137
((ltRp471
ag137
((lp472
g329
ag331
atRp473
ag137
((lp474
g329
ag331
atRp475
ag137
((lp476
g329
ag331
atRp477
ag137
((lp478
g329
ag331
atRp479
ag137
((lp480
g329
ag122
(g139
g124
NtRp481
(dp482
g142
S'1'
sg143
I10
sbag331
ag122
(g139
g124
NtRp483
(dp484
g142
S'0'
sg143
I6
sbatRp485
ag137
((lp486
g481
ag483
atRp487
ag137
((lp488
g481
ag483
atRp489
ag137
((lp490
g481
ag483
atRp491
ag137
((lp492
g481
ag483
atRp493
ag137
((lp494
g481
ag483
atRp495
ag137
((ltRp496
ag137
((ltRp497
ag137
((ltRp498
ag137
((ltRp499
ag137
((ltRp500
ag137
((ltRp501
ag137
((ltRp502
ag137
((ltRp503
ag137
((ltRp504
ag137
((ltRp505
ag137
((ltRp506
ag137
((ltRp507
ag137
((ltRp508
ag137
((ltRp509
ag137
((ltRp510
ag137
((ltRp511
ag137
((ltRp512
ag137
((ltRp513
ag137
((ltRp514
ag137
((ltRp515
ag137
((ltRp516
ag137
((ltRp517
ag137
((ltRp518
ag137
((ltRp519
ag137
((ltRp520
ag137
((ltRp521
ag137
((ltRp522
ag137
((ltRp523
ag137
((ltRp524
ag137
((ltRp525
ag137
((ltRp526
ag137
((ltRp527
ag137
((ltRp528
ag137
((ltRp529
ag137
((ltRp530
ag137
((ltRp531
ag137
((ltRp532
ag137
((ltRp533
ag137
((ltRp534
ag137
((ltRp535
ag137
((ltRp536
ag137
((ltRp537
ag137
((ltRp538
ag137
((ltRp539
ag137
((ltRp540
ag137
((ltRp541
ag137
((ltRp542
ag137
((ltRp543
ag137
((ltRp544
ag137
((ltRp545
ag137
((ltRp546
ag137
((ltRp547
ag137
((ltRp548
ag137
((ltRp549
ag137
((ltRp550
ag137
((ltRp551
ag137
((ltRp552
ag137
((ltRp553
ag137
((ltRp554
ag137
((lp555
g481
ag483
atRp556
ag137
((lp557
g481
ag483
atRp558
ag137
((lp559
g481
ag483
atRp560
ag137
((lp561
g481
ag483
atRp562
ag137
((lp563
g481
ag483
atRp564
ag137
((lp565
g122
(g139
g124
NtRp566
(dp567
g142
S'0'
sg143
I7
sbag481
ag122
(g139
g124
NtRp568
(dp569
g142
S'1'
sg143
I11
sbag483
atRp570
ag137
((lp571
g566
ag568
atRp572
ag137
((lp573
g566
ag568
atRp574
ag137
((lp575
g566
ag568
atRp576
ag137
((lp577
g566
ag568
atRp578
ag137
((lp579
g566
ag568
atRp580
ag137
((lp581
g566
ag568
atRp582
ag137
((lp583
g566
ag568
atRp584
ag137
((lp585
g566
ag568
atRp586
ag137
((lp587
g566
ag568
atRp588
ag137
((lp589
g566
ag568
atRp590
ag137
((ltRp591
ag137
((ltRp592
ag137
((ltRp593
ag137
((ltRp594
ag137
((ltRp595
ag137
((ltRp596
ag137
((ltRp597
ag137
((ltRp598
ag137
((ltRp599
ag137
((ltRp600
ag137
((ltRp601
ag137
((ltRp602
ag137
((ltRp603
ag137
((ltRp604
ag137
((ltRp605
ag137
((ltRp606
ag137
((ltRp607
ag137
((ltRp608
ag137
((ltRp609
ag137
((ltRp610
ag137
((ltRp611
ag137
((ltRp612
ag137
((ltRp613
ag137
((ltRp614
ag137
((ltRp615
ag137
((ltRp616
ag137
((ltRp617
ag137
((ltRp618
ag137
((ltRp619
ag137
((ltRp620
ag137
((ltRp621
ag137
((ltRp622
ag137
((ltRp623
ag137
((ltRp624
ag137
((ltRp625
ag137
((ltRp626
ag137
((ltRp627
ag137
((ltRp628
ag137
((ltRp629
ag137
((ltRp630
ag137
((ltRp631
ag137
((ltRp632
ag137
((ltRp633
ag137
((ltRp634
ag137
((ltRp635
ag137
((ltRp636
ag137
((ltRp637
ag137
((ltRp638
ag137
((ltRp639
ag137
((ltRp640
ag137
((ltRp641
ag137
((ltRp642
ag137
((ltRp643
ag137
((ltRp644
ag137
((lp645
g566
ag568
atRp646
ag137
((lp647
g566
ag568
atRp648
ag137
((lp649
g566
ag568
atRp650
ag137
((lp651
g566
ag568
atRp652
ag137
((lp653
g566
ag568
atRp654
ag137
((lp655
g566
ag568
atRp656
ag137
((lp657
g566
ag568
atRp658
ag137
((lp659
g566
ag568
atRp660
ag137
((lp661
g566
ag568
atRp662
ag137
((lp663
g566
ag568
atRp664
ag137
((lp665
g566
ag568
atRp666
ag137
((ltRp667
ag137
((ltRp668
ag137
((ltRp669
ag137
((ltRp670
ag137
((ltRp671
ag137
((ltRp672
ag137
((ltRp673
ag137
((ltRp674
ag137
((ltRp675
ag137
((ltRp676
ag137
((ltRp677
ag137
((ltRp678
ag137
((ltRp679
ag137
((ltRp680
ag137
((ltRp681
ag137
((ltRp682
ag137
((ltRp683
ag137
((ltRp684
ag137
((ltRp685
ag137
((ltRp686
ag137
((ltRp687
ag137
((ltRp688
ag137
((ltRp689
ag137
((ltRp690
ag137
((ltRp691
ag137
((ltRp692
ag137
((ltRp693
ag137
((ltRp694
ag137
((ltRp695
ag137
((ltRp696
ag137
((ltRp697
ag137
((ltRp698
ag137
((ltRp699
ag137
((ltRp700
ag137
((ltRp701
ag137
((ltRp702
ag137
((ltRp703
ag137
((ltRp704
ag137
((ltRp705
ag137
((ltRp706
ag137
((ltRp707
ag137
((ltRp708
ag137
((ltRp709
ag137
((ltRp710
ag137
((ltRp711
ag137
((ltRp712
ag137
((ltRp713
ag137
((ltRp714
ag137
((ltRp715
ag137
((ltRp716
ag137
((ltRp717
ag137
((ltRp718
ag137
((ltRp719
ag137
((ltRp720
ag137
((lp721
g566
ag568
atRp722
ag137
((lp723
g566
ag568
atRp724
ag137
((lp725
g566
ag568
atRp726
ag137
((lp727
g566
ag568
atRp728
ag137
((lp729
g566
ag568
atRp730
ag137
((lp731
g566
ag568
atRp732
ag137
((lp733
g566
ag568
atRp734
ag137
((lp735
g566
ag568
atRp736
ag137
((lp737
g566
ag568
atRp738
ag137
((lp739
g566
ag568
atRp740
ag137
((lp741
g566
ag568
atRp742
ag137
((ltRp743
ag137
((ltRp744
ag137
((ltRp745
ag137
((ltRp746
ag137
((ltRp747
ag137
((ltRp748
ag137
((ltRp749
ag137
((ltRp750
ag137
((ltRp751
ag137
((ltRp752
ag137
((ltRp753
ag137
((ltRp754
ag137
((ltRp755
ag137
((ltRp756
ag137
((ltRp757
ag137
((ltRp758
ag137
((ltRp759
ag137
((ltRp760
ag137
((ltRp761
ag137
((ltRp762
ag137
((ltRp763
ag137
((ltRp764
ag137
((ltRp765
ag137
((ltRp766
ag137
((ltRp767
ag137
((ltRp768
ag137
((ltRp769
ag137
((ltRp770
ag137
((ltRp771
ag137
((ltRp772
ag137
((ltRp773
ag137
((ltRp774
ag137
((ltRp775
ag137
((ltRp776
ag137
((ltRp777
ag137
((ltRp778
ag137
((ltRp779
ag137
((ltRp780
ag137
((ltRp781
ag137
((ltRp782
ag137
((ltRp783
ag137
((ltRp784
ag137
((ltRp785
ag137
((ltRp786
ag137
((ltRp787
ag137
((ltRp788
ag137
((ltRp789
ag137
((ltRp790
ag137
((ltRp791
ag137
((ltRp792
ag137
((ltRp793
ag137
((ltRp794
ag137
((ltRp795
ag137
((ltRp796
ag137
((lp797
g566
ag568
atRp798
ag137
((lp799
g566
ag568
atRp800
ag137
((lp801
g566
ag568
atRp802
ag137
((lp803
g566
ag568
atRp804
ag137
((lp805
g566
ag568
atRp806
ag137
((lp807
g566
ag568
atRp808
ag137
((lp809
g566
ag568
atRp810
ag137
((lp811
g566
ag568
atRp812
ag137
((lp813
g566
ag568
atRp814
ag137
((lp815
g566
ag568
atRp816
ag137
((lp817
g566
ag568
atRp818
ag137
((ltRp819
ag137
((ltRp820
ag137
((ltRp821
ag137
((ltRp822
ag137
((ltRp823
ag137
((ltRp824
ag137
((ltRp825
ag137
((ltRp826
ag137
((ltRp827
ag137
((ltRp828
ag137
((ltRp829
ag137
((ltRp830
ag137
((ltRp831
ag137
((ltRp832
ag137
((ltRp833
ag137
((ltRp834
ag137
((ltRp835
ag137
((ltRp836
ag137
((ltRp837
ag137
((ltRp838
ag137
((ltRp839
ag137
((ltRp840
ag137
((ltRp841
ag137
((ltRp842
ag137
((ltRp843
ag137
((ltRp844
ag137
((ltRp845
ag137
((ltRp846
ag137
((ltRp847
ag137
((ltRp848
ag137
((ltRp849
ag137
((ltRp850
ag137
((ltRp851
ag137
((ltRp852
ag137
((ltRp853
ag137
((ltRp854
ag137
((ltRp855
ag137
((ltRp856
ag137
((ltRp857
ag137
((ltRp858
ag137
((ltRp859
ag137
((ltRp860
ag137
((ltRp861
ag137
((ltRp862
ag137
((ltRp863
ag137
((ltRp864
ag137
((ltRp865
ag137
((ltRp866
ag137
((ltRp867
ag137
((ltRp868
ag137
((ltRp869
ag137
((ltRp870
ag137
((ltRp871
ag137
((ltRp872
ag137
((lp873
g566
ag568
atRp874
ag137
((lp875
g566
ag568
atRp876
ag137
((lp877
g566
ag568
atRp878
ag137
((lp879
g566
ag568
atRp880
ag137
((lp881
g566
ag568
atRp882
ag137
((lp883
g566
ag568
atRp884
ag137
((lp885
g566
ag568
atRp886
ag137
((lp887
g566
ag568
atRp888
ag137
((lp889
g566
ag568
atRp890
ag137
((lp891
g566
ag568
atRp892
ag137
((lp893
g566
ag122
(g139
g124
NtRp894
(dp895
g142
S'0'
sg143
I8
sbag568
ag122
(g139
g124
NtRp896
(dp897
g142
S'1'
sg143
I12
sbatRp898
ag137
((lp899
g894
ag896
atRp900
ag137
((lp901
g894
ag896
atRp902
ag137
((lp903
g894
ag896
atRp904
ag137
((lp905
g894
ag896
atRp906
ag137
((lp907
g894
ag896
atRp908
ag137
((lp909
g894
ag896
atRp910
ag137
((ltRp911
ag137
((ltRp912
ag137
((ltRp913
ag137
((ltRp914
ag137
((ltRp915
ag137
((ltRp916
ag137
((ltRp917
ag137
((ltRp918
ag137
((ltRp919
ag137
((ltRp920
ag137
((ltRp921
ag137
((ltRp922
ag137
((ltRp923
ag137
((ltRp924
ag137
((ltRp925
ag137
((ltRp926
ag137
((ltRp927
ag137
((ltRp928
ag137
((ltRp929
ag137
((ltRp930
ag137
((ltRp931
ag137
((ltRp932
ag137
((ltRp933
ag137
((ltRp934
ag137
((ltRp935
ag137
((ltRp936
ag137
((ltRp937
ag137
((ltRp938
ag137
((ltRp939
ag137
((ltRp940
ag137
((ltRp941
ag137
((ltRp942
ag137
((ltRp943
ag137
((ltRp944
ag137
((ltRp945
ag137
((ltRp946
ag137
((ltRp947
ag137
((ltRp948
ag137
((ltRp949
ag137
((ltRp950
ag137
((ltRp951
ag137
((ltRp952
ag137
((ltRp953
ag137
((ltRp954
ag137
((ltRp955
ag137
((ltRp956
ag137
((ltRp957
ag137
((ltRp958
ag137
((ltRp959
ag137
((ltRp960
ag137
((ltRp961
ag137
((ltRp962
ag137
((ltRp963
ag137
((ltRp964
ag137
((ltRp965
ag137
((ltRp966
ag137
((ltRp967
ag137
((ltRp968
ag137
((lp969
g894
ag896
atRp970
ag137
((lp971
g894
ag896
atRp972
ag137
((lp973
g894
ag896
atRp974
ag137
((lp975
g894
ag896
atRp976
ag137
((lp977
g894
ag896
atRp978
ag137
((lp979
g894
ag896
atRp980
ag137
((lp981
g894
ag122
(g139
g124
NtRp982
(dp983
g142
S'0'
sg143
I9
sbag896
ag122
(g139
g124
NtRp984
(dp985
g142
S'1'
sg143
I13
sbatRp986
ag137
((lp987
g982
ag984
atRp988
ag137
((lp989
g982
ag984
atRp990
ag137
((lp991
g982
ag984
atRp992
ag137
((lp993
g982
ag984
atRp994
ag137
((lp995
g982
ag984
atRp996
ag137
((lp997
g982
ag984
atRp998
ag137
((lp999
g982
ag984
atRp1000
ag137
((lp1001
g982
ag984
atRp1002
ag137
((ltRp1003
ag137
((ltRp1004
ag137
((ltRp1005
ag137
((ltRp1006
ag137
((ltRp1007
ag137
((ltRp1008
ag137
((ltRp1009
ag137
((ltRp1010
ag137
((ltRp1011
ag137
((ltRp1012
ag137
((ltRp1013
ag137
((ltRp1014
ag137
((ltRp1015
ag137
((ltRp1016
ag137
((ltRp1017
ag137
((ltRp1018
ag137
((ltRp1019
ag137
((ltRp1020
ag137
((ltRp1021
ag137
((ltRp1022
ag137
((ltRp1023
ag137
((ltRp1024
ag137
((ltRp1025
ag137
((ltRp1026
ag137
((ltRp1027
ag137
((ltRp1028
ag137
((ltRp1029
ag137
((ltRp1030
ag137
((ltRp1031
ag137
((ltRp1032
ag137
((ltRp1033
ag137
((ltRp1034
ag137
((ltRp1035
ag137
((ltRp1036
ag137
((ltRp1037
ag137
((ltRp1038
ag137
((ltRp1039
ag137
((ltRp1040
ag137
((ltRp1041
ag137
((ltRp1042
ag137
((ltRp1043
ag137
((ltRp1044
ag137
((ltRp1045
ag137
((ltRp1046
ag137
((ltRp1047
ag137
((ltRp1048
ag137
((ltRp1049
ag137
((ltRp1050
ag137
((ltRp1051
ag137
((ltRp1052
ag137
((ltRp1053
ag137
((ltRp1054
ag137
((ltRp1055
ag137
((ltRp1056
ag137
((ltRp1057
ag137
((ltRp1058
ag137
((lp1059
g982
ag984
atRp1060
ag137
((lp1061
g982
ag984
atRp1062
ag137
((lp1063
g982
ag984
atRp1064
ag137
((lp1065
g982
ag984
atRp1066
ag137
((lp1067
g982
ag984
atRp1068
ag137
((lp1069
g982
ag984
atRp1070
ag137
((lp1071
g982
ag984
atRp1072
ag137
((lp1073
g982
ag984
atRp1074
ag137
((lp1075
g982
ag984
atRp1076
ag137
((ltRp1077
ag137
((ltRp1078
ag137
((ltRp1079
ag137
((ltRp1080
ag137
((ltRp1081
ag137
((ltRp1082
ag137
((ltRp1083
ag137
((ltRp1084
ag137
((ltRp1085
ag137
((ltRp1086
ag137
((ltRp1087
ag137
((ltRp1088
ag137
((ltRp1089
ag137
((ltRp1090
ag137
((ltRp1091
ag137
((ltRp1092
ag137
((ltRp1093
ag137
((ltRp1094
ag137
((ltRp1095
ag137
((ltRp1096
ag137
((ltRp1097
ag137
((ltRp1098
ag137
((ltRp1099
ag137
((ltRp1100
ag137
((ltRp1101
ag137
((ltRp1102
ag137
((ltRp1103
ag137
((ltRp1104
ag137
((ltRp1105
ag137
((ltRp1106
ag137
((ltRp1107
ag137
((ltRp1108
ag137
((ltRp1109
ag137
((ltRp1110
ag137
((ltRp1111
ag137
((ltRp1112
ag137
((ltRp1113
ag137
((ltRp1114
ag137
((ltRp1115
ag137
((ltRp1116
ag137
((ltRp1117
ag137
((ltRp1118
ag137
((ltRp1119
ag137
((ltRp1120
ag137
((ltRp1121
ag137
((ltRp1122
ag137
((ltRp1123
ag137
((ltRp1124
ag137
((ltRp1125
ag137
((ltRp1126
ag137
((ltRp1127
ag137
((ltRp1128
ag137
((ltRp1129
ag137
((ltRp1130
ag137
((ltRp1131
ag137
((ltRp1132
ag137
((lp1133
g982
ag984
atRp1134
ag137
((lp1135
g982
ag984
atRp1136
ag137
((lp1137
g982
ag984
atRp1138
ag137
((lp1139
g982
ag984
atRp1140
ag137
((lp1141
g982
ag984
atRp1142
ag137
((lp1143
g982
ag984
atRp1144
ag137
((lp1145
g982
ag984
atRp1146
ag137
((lp1147
g982
ag984
atRp1148
ag137
((lp1149
g982
ag984
atRp1150
ag137
((ltRp1151
ag137
((ltRp1152
ag137
((ltRp1153
ag137
((ltRp1154
ag137
((ltRp1155
ag137
((ltRp1156
ag137
((ltRp1157
ag137
((ltRp1158
ag137
((ltRp1159
ag137
((ltRp1160
ag137
((ltRp1161
ag137
((ltRp1162
ag137
((ltRp1163
ag137
((ltRp1164
ag137
((ltRp1165
ag137
((ltRp1166
ag137
((ltRp1167
ag137
((ltRp1168
ag137
((ltRp1169
ag137
((ltRp1170
ag137
((ltRp1171
ag137
((ltRp1172
ag137
((ltRp1173
ag137
((ltRp1174
ag137
((ltRp1175
ag137
((ltRp1176
ag137
((ltRp1177
ag137
((ltRp1178
ag137
((ltRp1179
ag137
((ltRp1180
ag137
((ltRp1181
ag137
((ltRp1182
ag137
((ltRp1183
ag137
((ltRp1184
ag137
((ltRp1185
ag137
((ltRp1186
ag137
((ltRp1187
ag137
((ltRp1188
ag137
((ltRp1189
ag137
((ltRp1190
ag137
((ltRp1191
ag137
((ltRp1192
ag137
((ltRp1193
ag137
((ltRp1194
ag137
((ltRp1195
ag137
((ltRp1196
ag137
((ltRp1197
ag137
((ltRp1198
ag137
((ltRp1199
ag137
((ltRp1200
ag137
((ltRp1201
ag137
((ltRp1202
ag137
((ltRp1203
ag137
((ltRp1204
ag137
((ltRp1205
ag137
((ltRp1206
ag137
((lp1207
g982
ag984
atRp1208
ag137
((lp1209
g982
ag984
atRp1210
ag137
((lp1211
g982
ag984
atRp1212
ag137
((lp1213
g982
ag984
atRp1214
ag137
((lp1215
g982
ag984
atRp1216
ag137
((lp1217
g982
ag984
atRp1218
ag137
((lp1219
g982
ag984
atRp1220
ag137
((lp1221
g982
ag984
atRp1222
ag137
((lp1223
g982
ag122
(g139
g124
NtRp1224
(dp1225
g142
S'0'
sg143
I10
sbag984
ag122
(g139
g124
NtRp1226
(dp1227
g142
S'1'
sg143
I14
sbatRp1228
ag137
((lp1229
g1224
ag1226
atRp1230
ag137
((lp1231
g1224
ag1226
atRp1232
ag137
((lp1233
g1224
ag1226
atRp1234
ag137
((lp1235
g1224
ag1226
atRp1236
ag137
((ltRp1237
ag137
((ltRp1238
ag137
((ltRp1239
ag137
((ltRp1240
ag137
((ltRp1241
ag137
((ltRp1242
ag137
((ltRp1243
ag137
((ltRp1244
ag137
((ltRp1245
ag137
((ltRp1246
ag137
((ltRp1247
ag137
((ltRp1248
ag137
((ltRp1249
ag137
((ltRp1250
ag137
((ltRp1251
ag137
((ltRp1252
ag137
((ltRp1253
ag137
((ltRp1254
ag137
((ltRp1255
ag137
((ltRp1256
ag137
((ltRp1257
ag137
((ltRp1258
ag137
((ltRp1259
ag137
((ltRp1260
ag137
((ltRp1261
ag137
((ltRp1262
ag137
((ltRp1263
ag137
((ltRp1264
ag137
((ltRp1265
ag137
((ltRp1266
ag137
((ltRp1267
ag137
((ltRp1268
ag137
((ltRp1269
ag137
((ltRp1270
ag137
((ltRp1271
ag137
((ltRp1272
ag137
((ltRp1273
ag137
((ltRp1274
ag137
((ltRp1275
ag137
((ltRp1276
ag137
((ltRp1277
ag137
((ltRp1278
ag137
((ltRp1279
ag137
((ltRp1280
ag137
((ltRp1281
ag137
((ltRp1282
ag137
((ltRp1283
ag137
((ltRp1284
ag137
((ltRp1285
ag137
((ltRp1286
ag137
((ltRp1287
ag137
((ltRp1288
ag137
((ltRp1289
ag137
((ltRp1290
ag137
((ltRp1291
ag137
((ltRp1292
ag137
((ltRp1293
ag137
((ltRp1294
ag137
((ltRp1295
ag137
((ltRp1296
ag137
((lp1297
g1224
ag1226
atRp1298
ag137
((lp1299
g1224
ag1226
atRp1300
ag137
((lp1301
g1224
ag1226
atRp1302
ag137
((lp1303
g1224
ag1226
atRp1304
ag137
((lp1305
g1224
ag122
(g139
g124
NtRp1306
(dp1307
g142
S'0'
sg143
I11
sbag1226
ag122
(g139
g124
NtRp1308
(dp1309
g142
S'1'
sg143
I15
sbatRp1310
ag137
((lp1311
g1306
ag1308
atRp1312
ag137
((lp1313
g1306
ag1308
atRp1314
ag137
((lp1315
g1306
ag1308
atRp1316
ag137
((lp1317
g1306
ag1308
atRp1318
ag137
((lp1319
g1306
ag1308
atRp1320
ag137
((lp1321
g1306
ag1308
atRp1322
ag137
((lp1323
g1306
ag1308
atRp1324
ag137
((lp1325
g1306
ag1308
atRp1326
ag137
((lp1327
g1306
ag1308
atRp1328
ag137
((lp1329
g1306
ag1308
atRp1330
ag137
((ltRp1331
ag137
((ltRp1332
ag137
((ltRp1333
ag137
((ltRp1334
ag137
((ltRp1335
ag137
((ltRp1336
ag137
((ltRp1337
ag137
((ltRp1338
ag137
((ltRp1339
ag137
((ltRp1340
ag137
((ltRp1341
ag137
((ltRp1342
ag137
((ltRp1343
ag137
((ltRp1344
ag137
((ltRp1345
ag137
((ltRp1346
ag137
((ltRp1347
ag137
((ltRp1348
ag137
((ltRp1349
ag137
((ltRp1350
ag137
((ltRp1351
ag137
((ltRp1352
ag137
((ltRp1353
ag137
((ltRp1354
ag137
((ltRp1355
ag137
((ltRp1356
ag137
((ltRp1357
ag137
((ltRp1358
ag137
((ltRp1359
ag137
((ltRp1360
ag137
((ltRp1361
ag137
((ltRp1362
ag137
((ltRp1363
ag137
((ltRp1364
ag137
((ltRp1365
ag137
((ltRp1366
ag137
((ltRp1367
ag137
((ltRp1368
ag137
((ltRp1369
ag137
((ltRp1370
ag137
((ltRp1371
ag137
((ltRp1372
ag137
((ltRp1373
ag137
((ltRp1374
ag137
((ltRp1375
ag137
((ltRp1376
ag137
((ltRp1377
ag137
((ltRp1378
ag137
((ltRp1379
ag137
((ltRp1380
ag137
((ltRp1381
ag137
((ltRp1382
ag137
((ltRp1383
ag137
((ltRp1384
ag137
((lp1385
g1306
ag1308
atRp1386
ag137
((lp1387
g1306
ag1308
atRp1388
ag137
((lp1389
g1306
ag1308
atRp1390
ag137
((lp1391
g1306
ag1308
atRp1392
ag137
((lp1393
g1306
ag1308
atRp1394
ag137
((lp1395
g1306
ag1308
atRp1396
ag137
((lp1397
g1306
ag1308
atRp1398
ag137
((lp1399
g1306
ag1308
atRp1400
ag137
((lp1401
g1306
ag1308
atRp1402
ag137
((lp1403
g1306
ag1308
atRp1404
ag137
((lp1405
g1306
ag1308
atRp1406
ag137
((ltRp1407
ag137
((ltRp1408
ag137
((ltRp1409
ag137
((ltRp1410
ag137
((ltRp1411
ag137
((ltRp1412
ag137
((ltRp1413
ag137
((ltRp1414
ag137
((ltRp1415
ag137
((ltRp1416
ag137
((ltRp1417
ag137
((ltRp1418
ag137
((ltRp1419
ag137
((ltRp1420
ag137
((ltRp1421
ag137
((ltRp1422
ag137
((ltRp1423
ag137
((ltRp1424
ag137
((ltRp1425
ag137
((ltRp1426
ag137
((ltRp1427
ag137
((ltRp1428
ag137
((ltRp1429
ag137
((ltRp1430
ag137
((ltRp1431
ag137
((ltRp1432
ag137
((ltRp1433
ag137
((ltRp1434
ag137
((ltRp1435
ag137
((ltRp1436
ag137
((ltRp1437
ag137
((ltRp1438
ag137
((ltRp1439
ag137
((ltRp1440
ag137
((ltRp1441
ag137
((ltRp1442
ag137
((ltRp1443
ag137
((ltRp1444
ag137
((ltRp1445
ag137
((ltRp1446
ag137
((ltRp1447
ag137
((ltRp1448
ag137
((ltRp1449
ag137
((ltRp1450
ag137
((ltRp1451
ag137
((ltRp1452
ag137
((ltRp1453
ag137
((ltRp1454
ag137
((ltRp1455
ag137
((ltRp1456
ag137
((ltRp1457
ag137
((ltRp1458
ag137
((ltRp1459
ag137
((ltRp1460
ag137
((lp1461
g1306
ag1308
atRp1462
ag137
((lp1463
g1306
ag1308
atRp1464
ag137
((lp1465
g1306
ag1308
atRp1466
ag137
((lp1467
g1306
ag1308
atRp1468
ag137
((lp1469
g1306
ag1308
atRp1470
ag137
((lp1471
g1306
ag1308
atRp1472
ag137
((lp1473
g1306
ag1308
atRp1474
ag137
((lp1475
g1306
ag1308
atRp1476
ag137
((lp1477
g1306
ag1308
atRp1478
ag137
((lp1479
g1306
ag1308
atRp1480
ag137
((lp1481
g1306
ag1308
atRp1482
ag137
((ltRp1483
ag137
((ltRp1484
ag137
((ltRp1485
ag137
((ltRp1486
ag137
((ltRp1487
ag137
((ltRp1488
ag137
((ltRp1489
ag137
((ltRp1490
ag137
((ltRp1491
ag137
((ltRp1492
ag137
((ltRp1493
ag137
((ltRp1494
ag137
((ltRp1495
ag137
((ltRp1496
ag137
((ltRp1497
ag137
((ltRp1498
ag137
((ltRp1499
ag137
((ltRp1500
ag137
((ltRp1501
ag137
((ltRp1502
ag137
((ltRp1503
ag137
((ltRp1504
ag137
((ltRp1505
ag137
((ltRp1506
ag137
((ltRp1507
ag137
((ltRp1508
ag137
((ltRp1509
ag137
((ltRp1510
ag137
((ltRp1511
ag137
((ltRp1512
ag137
((ltRp1513
ag137
((ltRp1514
ag137
((ltRp1515
ag137
((ltRp1516
ag137
((ltRp1517
ag137
((ltRp1518
ag137
((ltRp1519
ag137
((ltRp1520
ag137
((ltRp1521
ag137
((ltRp1522
ag137
((ltRp1523
ag137
((ltRp1524
ag137
((ltRp1525
ag137
((ltRp1526
ag137
((ltRp1527
ag137
((ltRp1528
ag137
((ltRp1529
ag137
((ltRp1530
ag137
((ltRp1531
ag137
((ltRp1532
ag137
((ltRp1533
ag137
((ltRp1534
ag137
((ltRp1535
ag137
((ltRp1536
ag137
((lp1537
g1306
ag1308
atRp1538
ag137
((lp1539
g1306
ag1308
atRp1540
ag137
((lp1541
g1306
ag1308
atRp1542
ag137
((lp1543
g1306
ag1308
atRp1544
ag137
((lp1545
g1306
ag1308
atRp1546
ag137
((lp1547
g1306
ag1308
atRp1548
ag137
((lp1549
g1306
ag1308
atRp1550
ag137
((lp1551
g1306
ag1308
atRp1552
ag137
((lp1553
g1306
ag1308
atRp1554
ag137
((lp1555
g1306
ag1308
atRp1556
ag137
((lp1557
g122
(g139
g124
NtRp1558
(dp1559
g142
S'1'
sg143
I16
sbag1306
ag122
(g139
g124
NtRp1560
(dp1561
g142
S'0'
sg143
I12
sbag1308
atRp1562
ag137
((lp1563
g1558
ag1560
atRp1564
ag137
((lp1565
g1558
ag122
(g139
g124
NtRp1566
(dp1567
g142
S'1'
sg143
I17
sbag1560
ag122
(g139
g124
NtRp1568
(dp1569
g142
S'0'
sg143
I13
sbatRp1570
ag137
((lp1571
g1566
ag1568
atRp1572
ag137
((lp1573
g1566
ag1568
atRp1574
ag137
((lp1575
g1566
ag1568
atRp1576
ag137
((lp1577
g1566
ag1568
atRp1578
ag137
((ltRp1579
ag137
((ltRp1580
ag137
((ltRp1581
ag137
((ltRp1582
ag137
((ltRp1583
ag137
((ltRp1584
ag137
((ltRp1585
ag137
((ltRp1586
ag137
((ltRp1587
ag137
((ltRp1588
ag137
((ltRp1589
ag137
((ltRp1590
ag137
((ltRp1591
ag137
((ltRp1592
ag137
((ltRp1593
ag137
((ltRp1594
ag137
((ltRp1595
ag137
((ltRp1596
ag137
((ltRp1597
ag137
((ltRp1598
ag137
((ltRp1599
ag137
((ltRp1600
ag137
((ltRp1601
ag137
((ltRp1602
ag137
((ltRp1603
ag137
((ltRp1604
ag137
((ltRp1605
ag137
((ltRp1606
ag137
((ltRp1607
ag137
((ltRp1608
ag137
((ltRp1609
ag137
((ltRp1610
ag137
((ltRp1611
ag137
((ltRp1612
ag137
((ltRp1613
ag137
((ltRp1614
ag137
((ltRp1615
ag137
((ltRp1616
ag137
((ltRp1617
ag137
((ltRp1618
ag137
((ltRp1619
ag137
((ltRp1620
ag137
((ltRp1621
ag137
((ltRp1622
ag137
((ltRp1623
ag137
((ltRp1624
ag137
((ltRp1625
ag137
((ltRp1626
ag137
((ltRp1627
ag137
((ltRp1628
ag137
((ltRp1629
ag137
((ltRp1630
ag137
((ltRp1631
ag137
((ltRp1632
ag137
((ltRp1633
ag137
((ltRp1634
ag137
((ltRp1635
ag137
((ltRp1636
ag137
((ltRp1637
ag137
((ltRp1638
ag137
((lp1639
g1566
ag1568
atRp1640
ag137
((lp1641
g1566
ag1568
atRp1642
ag137
((lp1643
g1566
ag1568
atRp1644
ag137
((lp1645
g1566
ag1568
atRp1646
ag137
((lp1647
g122
(g139
g124
NtRp1648
(dp1649
g142
S'0'
sg143
I15
sbag1566
ag122
(g139
g124
NtRp1650
(dp1651
g142
S'1'
sg143
I18
sbag1568
ag122
(g139
g124
NtRp1652
(dp1653
g142
S'0'
sg143
I14
sbatRp1654
ag137
((lp1655
g1648
ag122
(g139
g124
NtRp1656
(dp1657
g142
S'0'
sg143
I16
sbag122
(g139
g124
NtRp1658
(dp1659
g142
S'0'
sg143
I17
sbag122
(g139
g124
NtRp1660
(dp1661
g142
S'0'
sg143
I18
sbatRp1662
ag137
((lp1663
g122
(g139
g124
NtRp1664
(dp1665
g142
S'1'
sg143
I24
sbag122
(g139
g124
NtRp1666
(dp1667
g142
S'1'
sg143
I25
sbag1660
ag122
(g139
g124
NtRp1668
(dp1669
g142
S'0'
sg143
I19
sbatRp1670
ag137
((ltRp1671
ag137
((ltRp1672
ag137
((ltRp1673
ag137
((ltRp1674
ag137
((ltRp1675
ag137
((ltRp1676
ag137
((ltRp1677
ag137
((ltRp1678
ag137
((ltRp1679
ag137
((ltRp1680
ag137
((ltRp1681
ag137
((ltRp1682
ag137
((ltRp1683
ag137
((ltRp1684
ag137
((ltRp1685
ag137
((ltRp1686
ag137
((ltRp1687
ag137
((ltRp1688
ag137
((ltRp1689
ag137
((ltRp1690
ag137
((ltRp1691
ag137
((ltRp1692
ag137
((ltRp1693
ag137
((ltRp1694
ag137
((ltRp1695
ag137
((ltRp1696
ag137
((ltRp1697
ag137
((ltRp1698
ag137
((ltRp1699
ag137
((ltRp1700
ag137
((ltRp1701
ag137
((ltRp1702
ag137
((ltRp1703
ag137
((ltRp1704
ag137
((ltRp1705
ag137
((ltRp1706
ag137
((ltRp1707
ag137
((ltRp1708
ag137
((ltRp1709
ag137
((ltRp1710
ag137
((ltRp1711
ag137
((ltRp1712
ag137
((ltRp1713
ag137
((ltRp1714
ag137
((ltRp1715
ag137
((ltRp1716
ag137
((ltRp1717
ag137
((ltRp1718
ag137
((ltRp1719
ag137
((ltRp1720
ag137
((ltRp1721
ag137
((ltRp1722
ag137
((ltRp1723
ag137
((ltRp1724
ag137
((ltRp1725
ag137
((ltRp1726
ag137
((ltRp1727
ag137
((ltRp1728
ag137
((ltRp1729
ag137
((ltRp1730
ag137
((ltRp1731
ag137
((ltRp1732
ag137
((lp1733
g1648
ag1650
ag122
(g139
g124
NtRp1734
(dp1735
g142
S'1'
sg143
I19
sbag1652
atRp1736
ag137
((lp1737
g1648
ag1734
ag122
(g139
g124
NtRp1738
(dp1739
g142
S'1'
sg143
I20
sbag122
(g139
g124
NtRp1740
(dp1741
g142
S'1'
sg143
I21
sbag122
(g139
g124
NtRp1742
(dp1743
g142
S'1'
sg143
I22
sbatRp1744
ag137
((lp1745
g1664
ag1742
ag122
(g139
g124
NtRp1746
(dp1747
g142
S'1'
sg143
I23
sbatRp1748
asS'si_gridsquaresys'
p1749
g122
(cgrid
GridSquareSystem
p1750
g124
NtRp1751
(dp1752
S'lngstep'
p1753
F0.00125
sS'southwest_gridsquare'
p1754
g122
(cgrid
GridSquare
p1755
g124
NtRp1756
(dp1757
S'sys'
p1758
g1751
sS'gridlat'
p1759
I51
sS'gridlng'
p1760
I-11
sbsS'lngref'
p1761
F-79.457939102255295
sS'latstep'
p1762
F0.00087500000000000002
sS'latref'
p1763
F43.626966968592633
sS'northeast_gridsquare'
p1764
g122
(g1755
g124
NtRp1765
(dp1766
g1758
g1751
sg1759
I70
sg1760
I53
sbsbsS'si_plinename_to_gridsquareidxes'
p1767
(dp1768
S'1'
g137
((lp1769
I0
aI1
aI2
aI3
aI4
aI1029
aI1030
aI1025
aI1166
aI1026
aI1027
aI1028
aI538
aI539
aI540
aI541
aI542
aI543
aI544
aI545
aI546
aI547
aI548
aI1024
aI1031
aI1297
aI1229
aI1086
aI1087
aI1088
aI65
aI66
aI67
aI68
aI69
aI70
aI71
aI72
aI73
aI74
aI603
aI604
aI605
aI606
aI607
aI608
aI609
aI610
aI611
aI612
aI613
aI614
aI615
aI616
aI617
aI618
aI619
aI1298
aI1299
aI1151
aI1152
aI1153
aI1154
aI1155
aI1156
aI1157
aI134
aI135
aI136
aI137
aI138
aI139
aI140
aI141
aI142
aI143
aI1160
aI1092
aI678
aI679
aI680
aI681
aI682
aI683
aI684
aI685
aI686
aI687
aI688
aI689
aI690
aI691
aI692
aI1228
aI204
aI205
aI206
aI207
aI208
aI1234
aI1230
aI1231
aI1232
aI1167
aI749
aI750
aI751
aI752
aI753
aI754
aI755
aI756
aI757
aI269
aI270
aI271
aI272
aI273
aI274
aI275
aI276
aI277
aI278
aI1158
aI1159
aI814
aI815
aI816
aI817
aI818
aI819
aI820
aI821
aI822
aI1161
aI1093
aI1162
aI1163
aI1164
aI1165
aI338
aI339
aI340
aI341
aI342
aI343
aI344
aI345
aI346
aI347
aI348
aI349
aI350
aI351
aI352
aI353
aI879
aI880
aI881
aI882
aI883
aI884
aI885
aI886
aI887
aI888
aI889
aI890
aI891
aI1089
aI1090
aI1091
aI408
aI409
aI410
aI411
aI412
aI413
aI414
aI415
aI416
aI417
aI418
aI1094
aI1095
aI1096
aI952
aI953
aI954
aI955
aI956
aI957
aI958
aI959
aI960
aI961
aI962
aI963
aI964
aI965
aI966
aI473
aI474
aI475
aI476
aI477
aI478
aI479
aI480
aI481
aI482
aI483
aI1021
aI1022
aI1023
atRp1770
sS'0'
g137
((lp1771
I0
aI1
aI2
aI3
aI4
aI1029
aI1030
aI1025
aI1166
aI1026
aI1027
aI1028
aI538
aI539
aI540
aI541
aI542
aI543
aI544
aI545
aI546
aI547
aI548
aI1024
aI1031
aI1297
aI1229
aI1086
aI1087
aI1088
aI65
aI66
aI67
aI68
aI69
aI70
aI71
aI72
aI73
aI74
aI603
aI604
aI605
aI606
aI607
aI608
aI609
aI610
aI611
aI612
aI613
aI614
aI615
aI616
aI617
aI618
aI619
aI1298
aI1151
aI1152
aI1153
aI1154
aI1155
aI1156
aI1157
aI134
aI135
aI136
aI137
aI138
aI139
aI140
aI141
aI142
aI143
aI1160
aI1092
aI678
aI679
aI680
aI681
aI682
aI683
aI684
aI685
aI686
aI687
aI688
aI689
aI690
aI691
aI692
aI1228
aI204
aI205
aI206
aI207
aI208
aI1233
aI1234
aI1230
aI1231
aI1232
aI1167
aI749
aI750
aI751
aI752
aI753
aI754
aI755
aI756
aI757
aI269
aI270
aI271
aI272
aI273
aI274
aI275
aI276
aI277
aI278
aI1158
aI1159
aI814
aI815
aI816
aI817
aI818
aI819
aI820
aI821
aI822
aI1161
aI1093
aI1162
aI1163
aI1164
aI1165
aI338
aI339
aI340
aI341
aI342
aI343
aI344
aI345
aI346
aI347
aI348
aI349
aI350
aI351
aI352
aI353
aI879
aI880
aI881
aI882
aI883
aI884
aI885
aI886
aI887
aI888
aI889
aI890
aI891
aI1089
aI1090
aI1091
aI408
aI409
aI410
aI411
aI412
aI413
aI414
aI415
aI416
aI417
aI418
aI1094
aI1095
aI1096
aI952
aI953
aI954
aI955
aI956
aI957
aI958
aI959
aI960
aI961
aI962
aI963
aI964
aI965
aI966
aI473
aI474
aI475
aI476
aI477
aI478
aI479
aI480
aI481
aI482
aI483
aI1021
aI1022
aI1023
atRp1772
ssbsS'version'
p1773
I2
sS'datazoom_to_dir_to_routeptaddr_to_mofr'
p1774
(dp1775
I0
(lp1776
(lp1777
I0
aI6788
aa(lp1778
I0
aI6788
aasN(lp1779
(lp1780
I0
aF21.212071558835945
aF39.51654625998043
aF71.3599869748478
aF521.31279280556373
aF975.67820873736957
aF1446.5470000624987
aF1925.7758007195212
aF3047.2812005206442
aF3618.9625757759768
aF4503.6723727241178
aF4912.2993822734334
aF5910.7959459901012
aF6196.17891912496
aF6520.6472141256372
aF6600.8240633637861
aF6651.9174247602823
aF6663.2988514863764
aF6697.4240432042907
aF6779.1467696218151
aF6788.7669617168149
aa(lp1781
I0
aF10.221939891871251
aF25.090065433607325
aF39.137856385006273
aF47.198947229186189
aF55.248647716457569
aF63.309739562806925
aF71.359441665384779
aF521.31224749610067
aF975.67766342790651
aF1446.5464547530355
aF1925.775255410058
aF3047.2806552111815
aF3618.9620304665141
aF4503.6718274146551
aF4912.2988369639706
aF5910.7954006806385
aF6196.1783738154973
aF6520.6466688161745
aF6600.8235180543234
aF6632.3288108015322
aF6663.8190729968028
aF6695.3242923388543
aF6726.8144819048603
aF6746.0247759490294
aF6782.1437425919785
aF6788.765418932534
aasI2
(lp1782
(lp1783
I0
aI21
aI39
aI1446
aI1925
aI3618
aI4912
aI5910
aI6196
aI6600
aI6663
aI6779
aI6788
aa(lp1784
I0
aI10
aI25
aI39
aI71
aI1446
aI1925
aI3618
aI4912
aI5910
aI6196
aI6726
aI6746
aI6788
aasI3
(lp1785
(lp1786
I0
aI21
aI39
aI521
aI1446
aI1925
aI3047
aI3618
aI4503
aI4912
aI5910
aI6196
aI6600
aI6663
aI6697
aI6779
aI6788
aa(lp1787
I0
aI10
aI25
aI39
aI71
aI521
aI1446
aI1925
aI3047
aI3618
aI4503
aI4912
aI5910
aI6196
aI6520
aI6726
aI6746
aI6782
aI6788
aasI1
(lp1788
(lp1789
I0
aI39
aI3618
aI5910
aI6600
aI6663
aI6788
aa(lp1790
I0
aI25
aI71
aI3618
aI5910
aI6726
aI6788
aassb.