(iroutes
RouteInfo
p1
(dp2
S'is_split_by_dir'
p3
I01
sS'name'
p4
S'wellesley'
p5
sS'datazoom_to_dir_to_routepts'
p6
(dp7
I0
(dp8
I0
(lp9
(igeom
LatLng
p10
(dp11
S'lat'
p12
F43.662593999999999
sS'lng'
p13
F-79.425873999999993
sba(igeom
LatLng
p14
(dp15
g12
F43.658588999999999
sg13
F-79.424285999999995
sba(igeom
LatLng
p16
(dp17
g12
F43.664937999999999
sg13
F-79.394266999999999
sba(igeom
LatLng
p18
(dp19
g12
F43.663160475431518
sg13
F-79.392681546804127
sba(igeom
LatLng
p20
(dp21
g12
F43.668166999999997
sg13
F-79.369546999999997
sba(igeom
LatLng
p22
(dp23
g12
F43.671613999999998
sg13
F-79.370971999999995
sba(igeom
LatLng
p24
(dp25
g12
F43.673412999999996
sg13
F-79.369643999999994
sbasI1
(lp26
(igeom
LatLng
p27
(dp28
g12
F43.662593999999999
sg13
F-79.425873999999993
sba(igeom
LatLng
p29
(dp30
g12
F43.658588999999999
sg13
F-79.424285999999995
sba(igeom
LatLng
p31
(dp32
g12
F43.663680999999997
sg13
F-79.399095000000003
sba(igeom
LatLng
p33
(dp34
g12
F43.665975510000003
sg13
F-79.392981910000003
sba(igeom
LatLng
p35
(dp36
g12
F43.665610340000001
sg13
F-79.391455239999999
sba(igeom
LatLng
p37
(dp38
g12
F43.663606000000001
sg13
F-79.390613000000002
sba(igeom
LatLng
p39
(dp40
g12
F43.668166999999997
sg13
F-79.369546999999997
sba(igeom
LatLng
p41
(dp42
g12
F43.671613999999998
sg13
F-79.370971999999995
sba(igeom
LatLng
p43
(dp44
g12
F43.673412999999996
sg13
F-79.369643999999994
sbassN(dp45
I0
(lp46
g10
ag14
a(igeom
LatLng
p47
(dp48
g12
F43.663680999999997
sg13
F-79.399095000000003
sba(igeom
LatLng
p49
(dp50
g12
F43.664115000000002
sg13
F-79.398321999999993
sbag16
a(igeom
LatLng
p51
(dp52
g12
F43.664928539593085
sg13
F-79.394259395484497
sba(igeom
LatLng
p53
(dp54
g12
F43.664931674285711
sg13
F-79.394245107428574
sba(igeom
LatLng
p55
(dp56
g12
F43.664922213878796
sg13
F-79.394237502912731
sba(igeom
LatLng
p57
(dp58
g12
F43.66492534857143
sg13
F-79.394223214857149
sba(igeom
LatLng
p59
(dp60
g12
F43.664915888164508
sg13
F-79.394215610340922
sba(igeom
LatLng
p61
(dp62
g12
F43.664919022857141
sg13
F-79.39420132228571
sba(igeom
LatLng
p63
(dp64
g12
F43.664909562450227
sg13
F-79.394193717769156
sba(igeom
LatLng
p65
(dp66
g12
F43.664912697142853
sg13
F-79.394179429714285
sba(igeom
LatLng
p67
(dp68
g12
F43.664903236735938
sg13
F-79.394171825197375
sba(igeom
LatLng
p69
(dp70
g12
F43.664906371428572
sg13
F-79.39415753714286
sba(igeom
LatLng
p71
(dp72
g12
F43.664896911021657
sg13
F-79.394149932625595
sba(igeom
LatLng
p73
(dp74
g12
F43.664900045714283
sg13
F-79.394135644571435
sba(igeom
LatLng
p75
(dp76
g12
F43.664890585307376
sg13
F-79.394128040053829
sba(igeom
LatLng
p77
(dp78
g12
F43.664893720000002
sg13
F-79.394113751999996
sba(igeom
LatLng
p79
(dp80
g12
F43.66488425959308
sg13
F-79.394106147482034
sba(igeom
LatLng
p81
(dp82
g12
F43.664887394285714
sg13
F-79.394091859428571
sba(igeom
LatLng
p83
(dp84
g12
F43.664877933878806
sg13
F-79.394084254910254
sba(igeom
LatLng
p85
(dp86
g12
F43.664881068571425
sg13
F-79.394069966857145
sba(igeom
LatLng
p87
(dp88
g12
F43.664871608164503
sg13
F-79.394062362338488
sba(igeom
LatLng
p89
(dp90
g12
F43.664874742857144
sg13
F-79.39404807428572
sba(igeom
LatLng
p91
(dp92
g12
F43.664865282450222
sg13
F-79.394040469766693
sba(igeom
LatLng
p93
(dp94
g12
F43.664868417142856
sg13
F-79.394026181714281
sba(igeom
LatLng
p95
(dp96
g12
F43.664858956735934
sg13
F-79.394018577194913
sba(igeom
LatLng
p97
(dp98
g12
F43.664862091428567
sg13
F-79.394004289142856
sba(igeom
LatLng
p99
(dp100
g12
F43.66485263102166
sg13
F-79.393996684623133
sba(igeom
LatLng
p101
(dp102
g12
F43.664855765714286
sg13
F-79.393982396571431
sba(igeom
LatLng
p103
(dp104
g12
F43.664846305307378
sg13
F-79.393974792051353
sba(igeom
LatLng
p105
(dp106
g12
F43.664849439999998
sg13
F-79.393960504000006
sba(igeom
LatLng
p107
(dp108
g12
F43.664839979593083
sg13
F-79.393952899479586
sba(igeom
LatLng
p109
(dp110
g12
F43.664843114285716
sg13
F-79.393938611428581
sba(igeom
LatLng
p111
(dp112
g12
F43.664833653878794
sg13
F-79.393931006907792
sba(igeom
LatLng
p113
(dp114
g12
F43.664836788571428
sg13
F-79.393916718857142
sba(igeom
LatLng
p115
(dp116
g12
F43.664827328164513
sg13
F-79.393909114336012
sba(igeom
LatLng
p117
(dp118
g12
F43.66483046285714
sg13
F-79.393894826285717
sba(igeom
LatLng
p119
(dp120
g12
F43.664827299999999
sg13
F-79.393883880000004
sba(igeom
LatLng
p121
(dp122
g12
F43.664817152474221
sg13
F-79.393889367088008
sba(igeom
LatLng
p123
(dp124
g12
F43.664810949387757
sg13
F-79.393877019183677
sba(igeom
LatLng
p125
(dp126
g12
F43.664800801861979
sg13
F-79.393882506269279
sba(igeom
LatLng
p127
(dp128
g12
F43.664794598775508
sg13
F-79.393870158367349
sba(igeom
LatLng
p129
(dp130
g12
F43.664784451249737
sg13
F-79.393875645450507
sba(igeom
LatLng
p131
(dp132
g12
F43.664778248163266
sg13
F-79.393863297551022
sba(igeom
LatLng
p133
(dp134
g12
F43.664768100637481
sg13
F-79.393868784631763
sba(igeom
LatLng
p135
(dp136
g12
F43.664761897551017
sg13
F-79.393856436734694
sba(igeom
LatLng
p137
(dp138
g12
F43.664751750025239
sg13
F-79.393861923812992
sba(igeom
LatLng
p139
(dp140
g12
F43.664745546938775
sg13
F-79.393849575918367
sba(igeom
LatLng
p141
(dp142
g12
F43.66473539941299
sg13
F-79.393855062994248
sba(igeom
LatLng
p143
(dp144
g12
F43.664729196326533
sg13
F-79.393842715102039
sba(igeom
LatLng
p145
(dp146
g12
F43.664719048800741
sg13
F-79.393848202175477
sba(igeom
LatLng
p147
(dp148
g12
F43.664712845714284
sg13
F-79.393835854285712
sba(igeom
LatLng
p149
(dp150
g12
F43.664702698188506
sg13
F-79.393841341356733
sba(igeom
LatLng
p151
(dp152
g12
F43.664696495102042
sg13
F-79.393828993469384
sba(igeom
LatLng
p153
(dp154
g12
F43.664686347576257
sg13
F-79.393834480537961
sba(igeom
LatLng
p155
(dp156
g12
F43.664680144489793
sg13
F-79.393822132653071
sba(igeom
LatLng
p157
(dp158
g12
F43.664669996964008
sg13
F-79.393827619719218
sba(igeom
LatLng
p159
(dp160
g12
F43.664663793877551
sg13
F-79.393815271836743
sba(igeom
LatLng
p161
(dp162
g12
F43.664653646351773
sg13
F-79.393820758900446
sba(igeom
LatLng
p163
(dp164
g12
F43.664647443265309
sg13
F-79.393808411020416
sba(igeom
LatLng
p165
(dp166
g12
F43.664637295739531
sg13
F-79.393813898081703
sba(igeom
LatLng
p167
(dp168
g12
F43.66463109265306
sg13
F-79.393801550204088
sba(igeom
LatLng
p169
(dp170
g12
F43.664620945127282
sg13
F-79.393807037262931
sba(igeom
LatLng
p171
(dp172
g12
F43.664614742040818
sg13
F-79.393794689387761
sba(igeom
LatLng
p173
(dp174
g12
F43.664604594515041
sg13
F-79.393800176444202
sba(igeom
LatLng
p175
(dp176
g12
F43.664598391428569
sg13
F-79.393787828571433
sba(igeom
LatLng
p177
(dp178
g12
F43.664588243902791
sg13
F-79.39379331562543
sba(igeom
LatLng
p179
(dp180
g12
F43.664582040816327
sg13
F-79.393780967755106
sba(igeom
LatLng
p181
(dp182
g12
F43.664571893290542
sg13
F-79.393786454806687
sba(igeom
LatLng
p183
(dp184
g12
F43.664565690204078
sg13
F-79.393774106938778
sba(igeom
LatLng
p185
(dp186
g12
F43.664555542678301
sg13
F-79.393779593987944
sba(igeom
LatLng
p187
(dp188
g12
F43.664549339591836
sg13
F-79.393767246122451
sba(igeom
LatLng
p189
(dp190
g12
F43.664539192066059
sg13
F-79.393772733169172
sba(igeom
LatLng
p191
(dp192
g12
F43.664532988979595
sg13
F-79.393760385306123
sba(igeom
LatLng
p193
(dp194
g12
F43.66452284145381
sg13
F-79.393765872350428
sba(igeom
LatLng
p195
(dp196
g12
F43.664516638367346
sg13
F-79.393753524489796
sba(igeom
LatLng
p197
(dp198
g12
F43.664506490841561
sg13
F-79.393759011531657
sba(igeom
LatLng
p199
(dp200
g12
F43.664500287755104
sg13
F-79.393746663673468
sba(igeom
LatLng
p201
(dp202
g12
F43.664490140229319
sg13
F-79.393752150712913
sba(igeom
LatLng
p203
(dp204
g12
F43.664483937142855
sg13
F-79.393739802857141
sba(igeom
LatLng
p205
(dp206
g12
F43.664473789617077
sg13
F-79.393745289894142
sba(igeom
LatLng
p207
(dp208
g12
F43.664467586530613
sg13
F-79.393732942040813
sba(igeom
LatLng
p209
(dp210
g12
F43.664457439004835
sg13
F-79.393738429075398
sba(igeom
LatLng
p211
(dp212
g12
F43.664451235918371
sg13
F-79.393726081224486
sba(igeom
LatLng
p213
(dp214
g12
F43.664441088392586
sg13
F-79.393731568256626
sba(igeom
LatLng
p215
(dp216
g12
F43.664434885306122
sg13
F-79.393719220408158
sba(igeom
LatLng
p217
(dp218
g12
F43.664424737780344
sg13
F-79.393724707437897
sba(igeom
LatLng
p219
(dp220
g12
F43.66441853469388
sg13
F-79.393712359591845
sba(igeom
LatLng
p221
(dp222
g12
F43.664408387168095
sg13
F-79.393717846619126
sba(igeom
LatLng
p223
(dp224
g12
F43.664402184081631
sg13
F-79.393705498775518
sba(igeom
LatLng
p225
(dp226
g12
F43.664392036555839
sg13
F-79.393710985800382
sba(igeom
LatLng
p227
(dp228
g12
F43.664385833469389
sg13
F-79.39369863795919
sba(igeom
LatLng
p229
(dp230
g12
F43.664375685943604
sg13
F-79.39370412498161
sba(igeom
LatLng
p231
(dp232
g12
F43.664369482857147
sg13
F-79.393691777142863
sba(igeom
LatLng
p233
(dp234
g12
F43.664359335331355
sg13
F-79.393697264162867
sba(igeom
LatLng
p235
(dp236
g12
F43.664353132244898
sg13
F-79.393684916326535
sba(igeom
LatLng
p237
(dp238
g12
F43.66434298471912
sg13
F-79.393690403344095
sba(igeom
LatLng
p239
(dp240
g12
F43.664336781632656
sg13
F-79.393678055510208
sba(igeom
LatLng
p241
(dp242
g12
F43.664326634106878
sg13
F-79.393683542525352
sba(igeom
LatLng
p243
(dp244
g12
F43.664320431020407
sg13
F-79.39367119469388
sba(igeom
LatLng
p245
(dp246
g12
F43.664310283494629
sg13
F-79.39367668170658
sba(igeom
LatLng
p247
(dp248
g12
F43.664304080408165
sg13
F-79.393664333877553
sba(igeom
LatLng
p249
(dp250
g12
F43.664293932882387
sg13
F-79.393669820887837
sba(igeom
LatLng
p251
(dp252
g12
F43.664287729795923
sg13
F-79.393657473061225
sba(igeom
LatLng
p253
(dp254
g12
F43.664277582270138
sg13
F-79.393662960069079
sba(igeom
LatLng
p255
(dp256
g12
F43.664271379183674
sg13
F-79.393650612244898
sba(igeom
LatLng
p257
(dp258
g12
F43.664261231657896
sg13
F-79.393656099250336
sba(igeom
LatLng
p259
(dp260
g12
F43.664255028571432
sg13
F-79.39364375142857
sba(igeom
LatLng
p261
(dp262
g12
F43.664244881045654
sg13
F-79.393649238431564
sba(igeom
LatLng
p263
(dp264
g12
F43.664238677959183
sg13
F-79.393636890612242
sba(igeom
LatLng
p265
(dp266
g12
F43.664228530433412
sg13
F-79.393642377612821
sba(igeom
LatLng
p267
(dp268
g12
F43.664222327346941
sg13
F-79.393630029795915
sba(igeom
LatLng
p269
(dp270
g12
F43.664212179821156
sg13
F-79.393635516794077
sba(igeom
LatLng
p271
(dp272
g12
F43.664205976734692
sg13
F-79.393623168979587
sba(igeom
LatLng
p273
(dp274
g12
F43.664195829208907
sg13
F-79.393628655975306
sba(igeom
LatLng
p275
(dp276
g12
F43.66418962612245
sg13
F-79.39361630816326
sba(igeom
LatLng
p277
(dp278
g12
F43.664179478596665
sg13
F-79.393621795156562
sba(igeom
LatLng
p279
(dp280
g12
F43.664173275510208
sg13
F-79.393609447346932
sba(igeom
LatLng
p281
(dp282
g12
F43.664163127984423
sg13
F-79.393614934337791
sba(igeom
LatLng
p283
(dp284
g12
F43.664156924897959
sg13
F-79.393602586530619
sba(igeom
LatLng
p285
(dp286
g12
F43.664146777372174
sg13
F-79.393608073519047
sba(igeom
LatLng
p287
(dp288
g12
F43.664140574285717
sg13
F-79.393595725714292
sba(igeom
LatLng
p289
(dp290
g12
F43.664130426759932
sg13
F-79.393601212700275
sba(igeom
LatLng
p291
(dp292
g12
F43.664124223673468
sg13
F-79.393588864897964
sba(igeom
LatLng
p293
(dp294
g12
F43.664114076147683
sg13
F-79.393594351881532
sba(igeom
LatLng
p295
(dp296
g12
F43.664107873061226
sg13
F-79.393582004081637
sba(igeom
LatLng
p297
(dp298
g12
F43.664097725535449
sg13
F-79.39358749106276
sba(igeom
LatLng
p299
(dp300
g12
F43.664091522448985
sg13
F-79.393575143265309
sba(igeom
LatLng
p301
(dp302
g12
F43.6640813749232
sg13
F-79.393580630244017
sba(igeom
LatLng
p303
(dp304
g12
F43.664075171836735
sg13
F-79.393568282448982
sba(igeom
LatLng
p305
(dp306
g12
F43.664065024310958
sg13
F-79.393573769425245
sba(igeom
LatLng
p307
(dp308
g12
F43.664058821224494
sg13
F-79.393561421632654
sba(igeom
LatLng
p309
(dp310
g12
F43.664048673698716
sg13
F-79.393566908606516
sba(igeom
LatLng
p311
(dp312
g12
F43.664042470612245
sg13
F-79.393554560816327
sba(igeom
LatLng
p313
(dp314
g12
F43.66403232308646
sg13
F-79.393560047787744
sba(igeom
LatLng
p315
(dp316
g12
F43.664026120000003
sg13
F-79.393547699999999
sba(igeom
LatLng
p317
(dp318
g12
F43.664015242091487
sg13
F-79.393547802973572
sba(igeom
LatLng
p319
(dp320
g12
F43.664012670181819
sg13
F-79.393533209818187
sba(igeom
LatLng
p321
(dp322
g12
F43.664001792273311
sg13
F-79.393533312790112
sba(igeom
LatLng
p323
(dp324
g12
F43.663999220363642
sg13
F-79.393518719636361
sba(igeom
LatLng
p325
(dp326
g12
F43.663988342455134
sg13
F-79.393518822606637
sba(igeom
LatLng
p327
(dp328
g12
F43.663985770545459
sg13
F-79.39350422945455
sba(igeom
LatLng
p329
(dp330
g12
F43.663974892636951
sg13
F-79.393504332423177
sba(igeom
LatLng
p331
(dp332
g12
F43.663972320727275
sg13
F-79.393489739272724
sba(igeom
LatLng
p333
(dp334
g12
F43.66396144281876
sg13
F-79.393489842239717
sba(igeom
LatLng
p335
(dp336
g12
F43.663958870909092
sg13
F-79.393475249090912
sba(igeom
LatLng
p337
(dp338
g12
F43.663947993000576
sg13
F-79.393475352056257
sba(igeom
LatLng
p339
(dp340
g12
F43.663945421090915
sg13
F-79.393460758909086
sba(igeom
LatLng
p341
(dp342
g12
F43.663934543182393
sg13
F-79.393460861872796
sba(igeom
LatLng
p343
(dp344
g12
F43.663931971272731
sg13
F-79.393446268727274
sba(igeom
LatLng
p345
(dp346
g12
F43.663921093364216
sg13
F-79.393446371689322
sba(igeom
LatLng
p347
(dp348
g12
F43.663918521454548
sg13
F-79.393431778545448
sba(igeom
LatLng
p349
(dp350
g12
F43.663907643546032
sg13
F-79.393431881505862
sba(igeom
LatLng
p351
(dp352
g12
F43.663905071636364
sg13
F-79.393417288363636
sba(igeom
LatLng
p353
(dp354
g12
F43.663894193727849
sg13
F-79.393417391322387
sba(igeom
LatLng
p355
(dp356
g12
F43.663891621818188
sg13
F-79.39340279818181
sba(igeom
LatLng
p357
(dp358
g12
F43.663880743909672
sg13
F-79.393402901138941
sba(igeom
LatLng
p359
(dp360
g12
F43.663878172000004
sg13
F-79.393388307999999
sba(igeom
LatLng
p361
(dp362
g12
F43.663867294091482
sg13
F-79.393388410955467
sba(igeom
LatLng
p363
(dp364
g12
F43.66386472218182
sg13
F-79.393373817818187
sba(igeom
LatLng
p365
(dp366
g12
F43.663853844273298
sg13
F-79.393373920772007
sba(igeom
LatLng
p367
(dp368
g12
F43.663851272363637
sg13
F-79.393359327636361
sba(igeom
LatLng
p369
(dp370
g12
F43.663840394455129
sg13
F-79.393359430588532
sba(igeom
LatLng
p371
(dp372
g12
F43.66383782254546
sg13
F-79.393344837454549
sba(igeom
LatLng
p373
(dp374
g12
F43.663826944636945
sg13
F-79.393344940405072
sba(igeom
LatLng
p375
(dp376
g12
F43.663824372727277
sg13
F-79.393330347272723
sba(igeom
LatLng
p377
(dp378
g12
F43.663813494818761
sg13
F-79.393330450221612
sba(igeom
LatLng
p379
(dp380
g12
F43.663810922909093
sg13
F-79.393315857090911
sba(igeom
LatLng
p381
(dp382
g12
F43.663800045000578
sg13
F-79.393315960038137
sba(igeom
LatLng
p383
(dp384
g12
F43.663797473090909
sg13
F-79.393301366909085
sba(igeom
LatLng
p385
(dp386
g12
F43.663786595182394
sg13
F-79.393301469854691
sba(igeom
LatLng
p387
(dp388
g12
F43.663784023272733
sg13
F-79.393286876727274
sba(igeom
LatLng
p389
(dp390
g12
F43.663773145364225
sg13
F-79.393286979671217
sba(igeom
LatLng
p391
(dp392
g12
F43.663770573454549
sg13
F-79.393272386545448
sba(igeom
LatLng
p393
(dp394
g12
F43.663759695546027
sg13
F-79.393272489487757
sba(igeom
LatLng
p395
(dp396
g12
F43.663757123636366
sg13
F-79.393257896363636
sba(igeom
LatLng
p397
(dp398
g12
F43.66374624572785
sg13
F-79.393257999304296
sba(igeom
LatLng
p399
(dp400
g12
F43.663743673818182
sg13
F-79.39324340618181
sba(igeom
LatLng
p401
(dp402
g12
F43.66373279590966
sg13
F-79.393243509120822
sba(igeom
LatLng
p403
(dp404
g12
F43.663730224000005
sg13
F-79.393228915999998
sba(igeom
LatLng
p405
(dp406
g12
F43.66371934609149
sg13
F-79.393229018937362
sba(igeom
LatLng
p407
(dp408
g12
F43.663716774181822
sg13
F-79.393214425818186
sba(igeom
LatLng
p409
(dp410
g12
F43.663705896273299
sg13
F-79.393214528753887
sba(igeom
LatLng
p411
(dp412
g12
F43.663703324363638
sg13
F-79.39319993563636
sba(igeom
LatLng
p413
(dp414
g12
F43.663692446455123
sg13
F-79.393200038570427
sba(igeom
LatLng
p415
(dp416
g12
F43.663689874545454
sg13
F-79.393185445454549
sba(igeom
LatLng
p417
(dp418
g12
F43.663678996636946
sg13
F-79.393185548386967
sba(igeom
LatLng
p419
(dp420
g12
F43.663676424727278
sg13
F-79.393170955272723
sba(igeom
LatLng
p421
(dp422
g12
F43.66366554681877
sg13
F-79.393171058203492
sba(igeom
LatLng
p423
(dp424
g12
F43.663662974909094
sg13
F-79.393156465090911
sba(igeom
LatLng
p425
(dp426
g12
F43.663652097000579
sg13
F-79.393156568020046
sba(igeom
LatLng
p427
(dp428
g12
F43.663649525090911
sg13
F-79.393141974909085
sba(igeom
LatLng
p429
(dp430
g12
F43.663638647182395
sg13
F-79.393142077836572
sba(igeom
LatLng
p431
(dp432
g12
F43.663636075272727
sg13
F-79.393127484727273
sba(igeom
LatLng
p433
(dp434
g12
F43.663625197364219
sg13
F-79.393127587653112
sba(igeom
LatLng
p435
(dp436
g12
F43.663622625454551
sg13
F-79.393112994545447
sba(igeom
LatLng
p437
(dp438
g12
F43.663611747546035
sg13
F-79.393113097469652
sba(igeom
LatLng
p439
(dp440
g12
F43.663609175636367
sg13
F-79.393098504363635
sba(igeom
LatLng
p441
(dp442
g12
F43.663598297727845
sg13
F-79.393098607286177
sba(igeom
LatLng
p443
(dp444
g12
F43.663595725818183
sg13
F-79.393084014181809
sba(igeom
LatLng
p445
(dp446
g12
F43.663584847909661
sg13
F-79.393084117102717
sba(igeom
LatLng
p447
(dp448
g12
F43.663582276
sg13
F-79.393069523999998
sba(igeom
LatLng
p449
(dp450
g12
F43.663571398091477
sg13
F-79.393069626919228
sba(igeom
LatLng
p451
(dp452
g12
F43.663568826181823
sg13
F-79.393055033818186
sba(igeom
LatLng
p453
(dp454
g12
F43.663557948273308
sg13
F-79.393055136735796
sba(igeom
LatLng
p455
(dp456
g12
F43.663555376363639
sg13
F-79.39304054363636
sba(igeom
LatLng
p457
(dp458
g12
F43.663544498455124
sg13
F-79.393040646552308
sba(igeom
LatLng
p459
(dp460
g12
F43.663541926545456
sg13
F-79.393026053454548
sba(igeom
LatLng
p461
(dp462
g12
F43.663531048636933
sg13
F-79.393026156368848
sba(igeom
LatLng
p463
(dp464
g12
F43.663528476727272
sg13
F-79.393011563272722
sba(igeom
LatLng
p465
(dp466
g12
F43.663517598818764
sg13
F-79.393011666185373
sba(igeom
LatLng
p467
(dp468
g12
F43.663515026909096
sg13
F-79.39299707309091
sba(igeom
LatLng
p469
(dp470
g12
F43.66350414900058
sg13
F-79.392997176001913
sba(igeom
LatLng
p471
(dp472
g12
F43.663501577090912
sg13
F-79.392982582909084
sba(igeom
LatLng
p473
(dp474
g12
F43.66349069918239
sg13
F-79.392982685818453
sba(igeom
LatLng
p475
(dp476
g12
F43.663488127272728
sg13
F-79.392968092727273
sba(igeom
LatLng
p477
(dp478
g12
F43.663477249364213
sg13
F-79.392968195634992
sba(igeom
LatLng
p479
(dp480
g12
F43.663474677454545
sg13
F-79.392953602545447
sba(igeom
LatLng
p481
(dp482
g12
F43.66346379954603
sg13
F-79.392953705451532
sba(igeom
LatLng
p483
(dp484
g12
F43.663461227636368
sg13
F-79.392939112363635
sba(igeom
LatLng
p485
(dp486
g12
F43.663450349727853
sg13
F-79.392939215268058
sba(igeom
LatLng
p487
(dp488
g12
F43.663447777818185
sg13
F-79.392924622181809
sba(igeom
LatLng
p489
(dp490
g12
F43.663436899909662
sg13
F-79.392924725084598
sba(igeom
LatLng
p491
(dp492
g12
F43.663434328000001
sg13
F-79.392910131999997
sba(igeom
LatLng
p493
(dp494
g12
F43.663423450091479
sg13
F-79.392910234901123
sba(igeom
LatLng
p495
(dp496
g12
F43.663420878181817
sg13
F-79.392895641818185
sba(igeom
LatLng
p497
(dp498
g12
F43.663410000273309
sg13
F-79.392895744717677
sba(igeom
LatLng
p499
(dp500
g12
F43.663407428363641
sg13
F-79.39288115163636
sba(igeom
LatLng
p501
(dp502
g12
F43.663396550455126
sg13
F-79.392881254534203
sba(igeom
LatLng
p503
(dp504
g12
F43.663393978545457
sg13
F-79.392866661454548
sba(igeom
LatLng
p505
(dp506
g12
F43.663383100636942
sg13
F-79.392866764350742
sba(igeom
LatLng
p507
(dp508
g12
F43.663380528727274
sg13
F-79.392852171272722
sba(igeom
LatLng
p509
(dp510
g12
F43.663369650818751
sg13
F-79.392852274167268
sba(igeom
LatLng
p511
(dp512
g12
F43.66336707890909
sg13
F-79.39283768109091
sba(igeom
LatLng
p513
(dp514
g12
F43.663356201000582
sg13
F-79.392837783983808
sba(igeom
LatLng
p515
(dp516
g12
F43.663353629090913
sg13
F-79.392823190909084
sba(igeom
LatLng
p517
(dp518
g12
F43.663342751182405
sg13
F-79.392823293800362
sba(igeom
LatLng
p519
(dp520
g12
F43.66334017927273
sg13
F-79.392808700727272
sba(igeom
LatLng
p521
(dp522
g12
F43.663329301364222
sg13
F-79.392808803616873
sba(igeom
LatLng
p523
(dp524
g12
F43.663326729454546
sg13
F-79.392794210545446
sba(igeom
LatLng
p525
(dp526
g12
F43.663315851546031
sg13
F-79.392794313433427
sba(igeom
LatLng
p527
(dp528
g12
F43.663313279636363
sg13
F-79.392779720363635
sba(igeom
LatLng
p529
(dp530
g12
F43.663302401727847
sg13
F-79.392779823249953
sba(igeom
LatLng
p531
(dp532
g12
F43.663299829818186
sg13
F-79.392765230181809
sba(igeom
LatLng
p533
(dp534
g12
F43.663288951909664
sg13
F-79.392765333066492
sba(igeom
LatLng
p535
(dp536
g12
F43.663286380000002
sg13
F-79.392750739999997
sba(igeom
LatLng
p537
(dp538
g12
F43.663276061184085
sg13
F-79.392755876022562
sba(igeom
LatLng
p539
(dp540
g12
F43.663270134666668
sg13
F-79.392743378666665
sba(igeom
LatLng
p541
(dp542
g12
F43.663259815850743
sg13
F-79.392748514686829
sba(igeom
LatLng
p543
(dp544
g12
F43.663253889333333
sg13
F-79.392736017333334
sba(igeom
LatLng
p545
(dp546
g12
F43.663243570517416
sg13
F-79.39274115335111
sba(igeom
LatLng
p547
(dp548
g12
F43.663237643999999
sg13
F-79.392728656000003
sba(igeom
LatLng
p549
(dp550
g12
F43.663227325184089
sg13
F-79.392733792015392
sba(igeom
LatLng
p551
(dp552
g12
F43.663221398666664
sg13
F-79.392721294666657
sba(igeom
LatLng
p553
(dp554
g12
F43.663211079850747
sg13
F-79.392726430679659
sba(igeom
LatLng
p555
(dp556
g12
F43.66320515333333
sg13
F-79.392713933333326
sba(igeom
LatLng
p557
(dp558
g12
F43.663194834517412
sg13
F-79.392719069343954
sba(igeom
LatLng
p559
(dp560
g12
F43.663188907999995
sg13
F-79.392706571999994
sba(igeom
LatLng
p561
(dp562
g12
F43.663178589184078
sg13
F-79.392711708008235
sba(igeom
LatLng
p563
(dp564
g12
F43.663172662666661
sg13
F-79.392699210666663
sba(igeom
LatLng
p565
(dp566
g12
F43.663164539999997
sg13
F-79.392695529999997
sbag18
a(igeom
LatLng
p567
(dp568
g12
F43.663169312540539
sg13
F-79.392673016162163
sba(igeom
LatLng
p569
(dp570
g12
F43.663165247972074
sg13
F-79.39265903296608
sba(igeom
LatLng
p571
(dp572
g12
F43.663174085081081
sg13
F-79.392650502324315
sba(igeom
LatLng
p573
(dp574
g12
F43.663170020512609
sg13
F-79.392636519128018
sba(igeom
LatLng
p575
(dp576
g12
F43.663178857621617
sg13
F-79.392627988486481
sba(igeom
LatLng
p577
(dp578
g12
F43.663174793053152
sg13
F-79.392614005289971
sba(igeom
LatLng
p579
(dp580
g12
F43.663183630162159
sg13
F-79.392605474648647
sba(igeom
LatLng
p581
(dp582
g12
F43.663179565593687
sg13
F-79.39259149145191
sba(igeom
LatLng
p583
(dp584
g12
F43.663188402702701
sg13
F-79.392582960810813
sba(igeom
LatLng
p585
(dp586
g12
F43.663184338134236
sg13
F-79.392568977613863
sba(igeom
LatLng
p587
(dp588
g12
F43.663193175243244
sg13
F-79.392560446972965
sba(igeom
LatLng
p589
(dp590
g12
F43.663189110674772
sg13
F-79.392546463775815
sba(igeom
LatLng
p591
(dp592
g12
F43.663197947783779
sg13
F-79.392537933135131
sba(igeom
LatLng
p593
(dp594
g12
F43.663193883215314
sg13
F-79.392523949937768
sba(igeom
LatLng
p595
(dp596
g12
F43.663202720324321
sg13
F-79.392515419297297
sba(igeom
LatLng
p597
(dp598
g12
F43.663198655755849
sg13
F-79.392501436099693
sba(igeom
LatLng
p599
(dp600
g12
F43.663207492864863
sg13
F-79.392492905459463
sba(igeom
LatLng
p601
(dp602
g12
F43.663203428296384
sg13
F-79.392478922261645
sba(igeom
LatLng
p603
(dp604
g12
F43.663212265405406
sg13
F-79.392470391621615
sba(igeom
LatLng
p605
(dp606
g12
F43.663208200836927
sg13
F-79.392456408423584
sba(igeom
LatLng
p607
(dp608
g12
F43.663217037945941
sg13
F-79.392447877783781
sba(igeom
LatLng
p609
(dp610
g12
F43.663212973377483
sg13
F-79.392433894585537
sba(igeom
LatLng
p611
(dp612
g12
F43.663221810486483
sg13
F-79.392425363945947
sba(igeom
LatLng
p613
(dp614
g12
F43.663217745918011
sg13
F-79.39241138074749
sba(igeom
LatLng
p615
(dp616
g12
F43.663226583027026
sg13
F-79.392402850108112
sba(igeom
LatLng
p617
(dp618
g12
F43.663222518458547
sg13
F-79.392388866909428
sba(igeom
LatLng
p619
(dp620
g12
F43.663231355567568
sg13
F-79.392380336270264
sba(igeom
LatLng
p621
(dp622
g12
F43.663227290999103
sg13
F-79.392366353071381
sba(igeom
LatLng
p623
(dp624
g12
F43.663236128108103
sg13
F-79.39235782243243
sba(igeom
LatLng
p625
(dp626
g12
F43.663232063539638
sg13
F-79.39234383923332
sba(igeom
LatLng
p627
(dp628
g12
F43.663240900648645
sg13
F-79.392335308594596
sba(igeom
LatLng
p629
(dp630
g12
F43.663236836080166
sg13
F-79.392321325395258
sba(igeom
LatLng
p631
(dp632
g12
F43.663245673189188
sg13
F-79.392312794756748
sba(igeom
LatLng
p633
(dp634
g12
F43.663241608620723
sg13
F-79.392298811557211
sba(igeom
LatLng
p635
(dp636
g12
F43.66325044572973
sg13
F-79.392290280918914
sba(igeom
LatLng
p637
(dp638
g12
F43.663246381161258
sg13
F-79.392276297719164
sba(igeom
LatLng
p639
(dp640
g12
F43.663255218270265
sg13
F-79.39226776708108
sba(igeom
LatLng
p641
(dp642
g12
F43.663251153701793
sg13
F-79.392253783881088
sba(igeom
LatLng
p643
(dp644
g12
F43.663259990810808
sg13
F-79.392245253243246
sba(igeom
LatLng
p645
(dp646
g12
F43.66325592624235
sg13
F-79.392231270043041
sba(igeom
LatLng
p647
(dp648
g12
F43.66326476335135
sg13
F-79.392222739405398
sba(igeom
LatLng
p649
(dp650
g12
F43.663260698782878
sg13
F-79.392208756204994
sba(igeom
LatLng
p651
(dp652
g12
F43.663269535891892
sg13
F-79.392200225567564
sba(igeom
LatLng
p653
(dp654
g12
F43.66326547132342
sg13
F-79.392186242366932
sba(igeom
LatLng
p655
(dp656
g12
F43.663274308432428
sg13
F-79.39217771172973
sba(igeom
LatLng
p657
(dp658
g12
F43.663270243863963
sg13
F-79.392163728528871
sba(igeom
LatLng
p659
(dp660
g12
F43.66327908097297
sg13
F-79.392155197891896
sba(igeom
LatLng
p661
(dp662
g12
F43.663275016404505
sg13
F-79.392141214690824
sba(igeom
LatLng
p663
(dp664
g12
F43.663283853513512
sg13
F-79.392132684054047
sba(igeom
LatLng
p665
(dp666
g12
F43.66327978894504
sg13
F-79.392118700852762
sba(igeom
LatLng
p667
(dp668
g12
F43.663288626054054
sg13
F-79.392110170216213
sba(igeom
LatLng
p669
(dp670
g12
F43.66328456148559
sg13
F-79.392096187014715
sba(igeom
LatLng
p671
(dp672
g12
F43.66329339859459
sg13
F-79.392087656378379
sba(igeom
LatLng
p673
(dp674
g12
F43.663289334026125
sg13
F-79.392073673176654
sba(igeom
LatLng
p675
(dp676
g12
F43.663298171135132
sg13
F-79.392065142540545
sba(igeom
LatLng
p677
(dp678
g12
F43.663294106566667
sg13
F-79.392051159338607
sba(igeom
LatLng
p679
(dp680
g12
F43.663302943675674
sg13
F-79.392042628702697
sba(igeom
LatLng
p681
(dp682
g12
F43.663298879107209
sg13
F-79.392028645500559
sba(igeom
LatLng
p683
(dp684
g12
F43.663307716216217
sg13
F-79.392020114864863
sba(igeom
LatLng
p685
(dp686
g12
F43.663303651647738
sg13
F-79.392006131662484
sba(igeom
LatLng
p687
(dp688
g12
F43.663312488756752
sg13
F-79.391997601027029
sba(igeom
LatLng
p689
(dp690
g12
F43.663308424188287
sg13
F-79.391983617824437
sba(igeom
LatLng
p691
(dp692
g12
F43.663317261297294
sg13
F-79.391975087189195
sba(igeom
LatLng
p693
(dp694
g12
F43.663313196728829
sg13
F-79.39196110398639
sba(igeom
LatLng
p695
(dp696
g12
F43.663322033837836
sg13
F-79.391952573351347
sba(igeom
LatLng
p697
(dp698
g12
F43.663317969269364
sg13
F-79.391938590148342
sba(igeom
LatLng
p699
(dp700
g12
F43.663326806378379
sg13
F-79.391930059513513
sba(igeom
LatLng
p701
(dp702
g12
F43.663322741809907
sg13
F-79.391916076310281
sba(igeom
LatLng
p703
(dp704
g12
F43.663331578918914
sg13
F-79.391907545675679
sba(igeom
LatLng
p705
(dp706
g12
F43.663327514350449
sg13
F-79.391893562472234
sba(igeom
LatLng
p707
(dp708
g12
F43.663336351459456
sg13
F-79.39188503183783
sba(igeom
LatLng
p709
(dp710
g12
F43.663332286890999
sg13
F-79.391871048634172
sba(igeom
LatLng
p711
(dp712
g12
F43.663341123999999
sg13
F-79.391862517999996
sba(igeom
LatLng
p713
(dp714
g12
F43.66333705943152
sg13
F-79.391848534796125
sba(igeom
LatLng
p715
(dp716
g12
F43.663345896540541
sg13
F-79.391840004162162
sba(igeom
LatLng
p717
(dp718
g12
F43.663341831972062
sg13
F-79.391826020958064
sba(igeom
LatLng
p719
(dp720
g12
F43.663350669081083
sg13
F-79.391817490324328
sba(igeom
LatLng
p721
(dp722
g12
F43.663346604512611
sg13
F-79.391803507120002
sba(igeom
LatLng
p723
(dp724
g12
F43.663355441621619
sg13
F-79.39179497648648
sba(igeom
LatLng
p725
(dp726
g12
F43.663351377053147
sg13
F-79.391780993281955
sba(igeom
LatLng
p727
(dp728
g12
F43.663360214162161
sg13
F-79.391772462648646
sba(igeom
LatLng
p729
(dp730
g12
F43.663356149593689
sg13
F-79.391758479443908
sba(igeom
LatLng
p731
(dp732
g12
F43.663364986702703
sg13
F-79.391749948810812
sba(igeom
LatLng
p733
(dp734
g12
F43.663360922134231
sg13
F-79.391735965605847
sba(igeom
LatLng
p735
(dp736
g12
F43.663369759243245
sg13
F-79.391727434972978
sba(igeom
LatLng
p737
(dp738
g12
F43.663365694674773
sg13
F-79.391713451767799
sba(igeom
LatLng
p739
(dp740
g12
F43.663374531783781
sg13
F-79.39170492113513
sba(igeom
LatLng
p741
(dp742
g12
F43.663370467215316
sg13
F-79.391690937929752
sba(igeom
LatLng
p743
(dp744
g12
F43.663379304324323
sg13
F-79.391682407297296
sba(igeom
LatLng
p745
(dp746
g12
F43.663375239755851
sg13
F-79.391668424091677
sba(igeom
LatLng
p747
(dp748
g12
F43.663384076864865
sg13
F-79.391659893459462
sba(igeom
LatLng
p749
(dp750
g12
F43.663380012296393
sg13
F-79.391645910253615
sba(igeom
LatLng
p751
(dp752
g12
F43.663388849405408
sg13
F-79.391637379621628
sba(igeom
LatLng
p753
(dp754
g12
F43.663384784836943
sg13
F-79.391623396415568
sba(igeom
LatLng
p755
(dp756
g12
F43.663393621945943
sg13
F-79.391614865783779
sba(igeom
LatLng
p757
(dp758
g12
F43.663389557377485
sg13
F-79.391600882577521
sba(igeom
LatLng
p759
(dp760
g12
F43.663398394486485
sg13
F-79.391592351945945
sba(igeom
LatLng
p761
(dp762
g12
F43.663394329918013
sg13
F-79.391578368739459
sba(igeom
LatLng
p763
(dp764
g12
F43.663403167027028
sg13
F-79.391569838108111
sba(igeom
LatLng
p765
(dp766
g12
F43.663399102458563
sg13
F-79.391555854901398
sba(igeom
LatLng
p767
(dp768
g12
F43.66340793956757
sg13
F-79.391547324270263
sba(igeom
LatLng
p769
(dp770
g12
F43.663403874999098
sg13
F-79.391533341063351
sba(igeom
LatLng
p771
(dp772
g12
F43.663412712108105
sg13
F-79.391524810432429
sba(igeom
LatLng
p773
(dp774
g12
F43.66340864753964
sg13
F-79.391510827225304
sba(igeom
LatLng
p775
(dp776
g12
F43.663417484648647
sg13
F-79.391502296594595
sba(igeom
LatLng
p777
(dp778
g12
F43.663413420080175
sg13
F-79.391488313387228
sba(igeom
LatLng
p779
(dp780
g12
F43.66342225718919
sg13
F-79.391479782756761
sba(igeom
LatLng
p781
(dp782
g12
F43.663418192620718
sg13
F-79.391465799549181
sba(igeom
LatLng
p783
(dp784
g12
F43.663427029729732
sg13
F-79.391457268918913
sba(igeom
LatLng
p785
(dp786
g12
F43.66342296516126
sg13
F-79.391443285711134
sba(igeom
LatLng
p787
(dp788
g12
F43.663431802270267
sg13
F-79.391434755081079
sba(igeom
LatLng
p789
(dp790
g12
F43.663427737701802
sg13
F-79.391420771873086
sba(igeom
LatLng
p791
(dp792
g12
F43.66343657481081
sg13
F-79.391412241243245
sba(igeom
LatLng
p793
(dp794
g12
F43.663432510242352
sg13
F-79.391398258035025
sba(igeom
LatLng
p795
(dp796
g12
F43.663441347351352
sg13
F-79.391389727405411
sba(igeom
LatLng
p797
(dp798
g12
F43.663437282782887
sg13
F-79.391375744196978
sba(igeom
LatLng
p799
(dp800
g12
F43.663446119891894
sg13
F-79.391367213567563
sba(igeom
LatLng
p801
(dp802
g12
F43.663442055323422
sg13
F-79.391353230358916
sba(igeom
LatLng
p803
(dp804
g12
F43.663450892432429
sg13
F-79.391344699729729
sba(igeom
LatLng
p805
(dp806
g12
F43.663446827863957
sg13
F-79.391330716520855
sba(igeom
LatLng
p807
(dp808
g12
F43.663455664972972
sg13
F-79.391322185891894
sba(igeom
LatLng
p809
(dp810
g12
F43.663451600404507
sg13
F-79.391308202682808
sba(igeom
LatLng
p811
(dp812
g12
F43.663460437513514
sg13
F-79.39129967205406
sba(igeom
LatLng
p813
(dp814
g12
F43.663456372945035
sg13
F-79.391285688844746
sba(igeom
LatLng
p815
(dp816
g12
F43.663465210054056
sg13
F-79.391277158216212
sba(igeom
LatLng
p817
(dp818
g12
F43.663461145485577
sg13
F-79.391263175006699
sba(igeom
LatLng
p819
(dp820
g12
F43.663469982594592
sg13
F-79.391254644378378
sba(igeom
LatLng
p821
(dp822
g12
F43.663465918026127
sg13
F-79.391240661168652
sba(igeom
LatLng
p823
(dp824
g12
F43.663474755135134
sg13
F-79.391232130540544
sba(igeom
LatLng
p825
(dp826
g12
F43.663470690566669
sg13
F-79.391218147330591
sba(igeom
LatLng
p827
(dp828
g12
F43.663479527675676
sg13
F-79.39120961670271
sba(igeom
LatLng
p829
(dp830
g12
F43.663475463107204
sg13
F-79.391195633492543
sba(igeom
LatLng
p831
(dp832
g12
F43.663484300216219
sg13
F-79.391187102864862
sba(igeom
LatLng
p833
(dp834
g12
F43.663480235647754
sg13
F-79.391173119654496
sba(igeom
LatLng
p835
(dp836
g12
F43.663489072756754
sg13
F-79.391164589027028
sba(igeom
LatLng
p837
(dp838
g12
F43.663485008188289
sg13
F-79.391150605816421
sba(igeom
LatLng
p839
(dp840
g12
F43.663493845297296
sg13
F-79.391142075189194
sba(igeom
LatLng
p841
(dp842
g12
F43.663489780728838
sg13
F-79.391128091978374
sba(igeom
LatLng
p843
(dp844
g12
F43.663498617837838
sg13
F-79.391119561351346
sba(igeom
LatLng
p845
(dp846
g12
F43.663494553269373
sg13
F-79.391105578140326
sba(igeom
LatLng
p847
(dp848
g12
F43.663503390378381
sg13
F-79.391097047513512
sba(igeom
LatLng
p849
(dp850
g12
F43.663499325809902
sg13
F-79.391083064302265
sba(igeom
LatLng
p851
(dp852
g12
F43.663508162918916
sg13
F-79.391074533675678
sba(igeom
LatLng
p853
(dp854
g12
F43.663504098350458
sg13
F-79.391060550464218
sba(igeom
LatLng
p855
(dp856
g12
F43.663512935459458
sg13
F-79.391052019837844
sba(igeom
LatLng
p857
(dp858
g12
F43.663508870890993
sg13
F-79.391038036626171
sba(igeom
LatLng
p859
(dp860
g12
F43.663517708000001
sg13
F-79.391029505999995
sba(igeom
LatLng
p861
(dp862
g12
F43.663513643431536
sg13
F-79.391015522788095
sba(igeom
LatLng
p863
(dp864
g12
F43.663522480540543
sg13
F-79.391006992162161
sba(igeom
LatLng
p865
(dp866
g12
F43.663518415972071
sg13
F-79.390993008950048
sba(igeom
LatLng
p867
(dp868
g12
F43.663527253081085
sg13
F-79.390984478324327
sba(igeom
LatLng
p869
(dp870
g12
F43.663523188512613
sg13
F-79.390970495111972
sba(igeom
LatLng
p871
(dp872
g12
F43.66353202562162
sg13
F-79.390961964486493
sba(igeom
LatLng
p873
(dp874
g12
F43.663527961053155
sg13
F-79.390947981273925
sba(igeom
LatLng
p875
(dp876
g12
F43.663536798162163
sg13
F-79.390939450648645
sba(igeom
LatLng
p877
(dp878
g12
F43.663532733593691
sg13
F-79.390925467435878
sba(igeom
LatLng
p879
(dp880
g12
F43.663541570702705
sg13
F-79.390916936810811
sba(igeom
LatLng
p881
(dp882
g12
F43.663537506134233
sg13
F-79.390902953597816
sba(igeom
LatLng
p883
(dp884
g12
F43.663546343243247
sg13
F-79.390894422972977
sba(igeom
LatLng
p885
(dp886
g12
F43.663542278674775
sg13
F-79.390880439759769
sba(igeom
LatLng
p887
(dp888
g12
F43.663551115783783
sg13
F-79.390871909135143
sba(igeom
LatLng
p889
(dp890
g12
F43.663547051215318
sg13
F-79.390857925921722
sba(igeom
LatLng
p891
(dp892
g12
F43.663555888324325
sg13
F-79.390849395297295
sba(igeom
LatLng
p893
(dp894
g12
F43.66355182375586
sg13
F-79.390835412083661
sba(igeom
LatLng
p895
(dp896
g12
F43.663560660864867
sg13
F-79.390826881459461
sba(igeom
LatLng
p897
(dp898
g12
F43.663556596296402
sg13
F-79.390812898245599
sba(igeom
LatLng
p899
(dp900
g12
F43.66356543340541
sg13
F-79.390804367621627
sba(igeom
LatLng
p901
(dp902
g12
F43.66356136883693
sg13
F-79.390790384407552
sba(igeom
LatLng
p903
(dp904
g12
F43.663570205945945
sg13
F-79.390781853783778
sba(igeom
LatLng
p905
(dp906
g12
F43.663566141377487
sg13
F-79.390767870569491
sba(igeom
LatLng
p907
(dp908
g12
F43.663574978486487
sg13
F-79.390759339945944
sba(igeom
LatLng
p909
(dp910
g12
F43.663570913918022
sg13
F-79.390745356731458
sba(igeom
LatLng
p911
(dp912
g12
F43.663579751027029
sg13
F-79.39073682610811
sba(igeom
LatLng
p913
(dp914
g12
F43.663575686458557
sg13
F-79.390722842893396
sba(igeom
LatLng
p915
(dp916
g12
F43.663584523567572
sg13
F-79.390714312270276
sba(igeom
LatLng
p917
(dp918
g12
F43.663580458999093
sg13
F-79.390700329055335
sba(igeom
LatLng
p919
(dp920
g12
F43.663589296108107
sg13
F-79.390691798432428
sba(igeom
LatLng
p921
(dp922
g12
F43.663585231539649
sg13
F-79.390677815217288
sba(igeom
LatLng
p923
(dp924
g12
F43.663594068648649
sg13
F-79.390669284594594
sba(igeom
LatLng
p925
(dp926
g12
F43.663590004080177
sg13
F-79.39065530137924
sba(igeom
LatLng
p927
(dp928
g12
F43.663598841189192
sg13
F-79.39064677075676
sba(igeom
LatLng
p929
(dp930
g12
F43.66359477662072
sg13
F-79.390632787541165
sba(igeom
LatLng
p931
(dp932
g12
F43.663603613729734
sg13
F-79.390624256918926
sba(igeom
LatLng
p933
(dp934
g12
F43.663606000000001
sg13
F-79.390613000000002
sba(igeom
LatLng
p935
(dp936
g12
F43.664937999999999
sg13
F-79.384557000000001
sba(igeom
LatLng
p937
(dp938
g12
F43.666288000000002
sg13
F-79.378313000000006
sba(igeom
LatLng
p939
(dp940
g12
F43.666505999999998
sg13
F-79.377251000000001
sba(igeom
LatLng
p941
(dp942
g12
F43.666420000000002
sg13
F-79.376457000000002
sba(igeom
LatLng
p943
(dp944
g12
F43.666474999999998
sg13
F-79.375812999999994
sba(igeom
LatLng
p945
(dp946
g12
F43.66677
sg13
F-79.375136999999995
sba(igeom
LatLng
p947
(dp948
g12
F43.667088
sg13
F-79.374644000000004
sba(igeom
LatLng
p949
(dp950
g12
F43.667895000000001
sg13
F-79.370887999999994
sbag20
a(igeom
LatLng
p951
(dp952
g12
F43.671495999999998
sg13
F-79.370909999999995
sbag22
a(igeom
LatLng
p953
(dp954
g12
F43.671751999999998
sg13
F-79.370953
sba(igeom
LatLng
p955
(dp956
g12
F43.671892
sg13
F-79.370887999999994
sba(igeom
LatLng
p957
(dp958
g12
F43.672018000000001
sg13
F-79.370760000000004
sba(igeom
LatLng
p959
(dp960
g12
F43.672573999999997
sg13
F-79.369837000000004
sba(igeom
LatLng
p961
(dp962
g12
F43.672961999999998
sg13
F-79.369332999999997
sbag24
asI1
(lp963
g27
ag29
ag31
a(igeom
LatLng
p964
(dp965
g12
F43.664115000000002
sg13
F-79.398321999999993
sba(igeom
LatLng
p966
(dp967
g12
F43.664937999999999
sg13
F-79.394266999999999
sba(igeom
LatLng
p968
(dp969
g12
F43.665176459999998
sg13
F-79.393939840000002
sba(igeom
LatLng
p970
(dp971
g12
F43.66552506
sg13
F-79.393709479999998
sba(igeom
LatLng
p972
(dp973
g12
F43.665793309999998
sg13
F-79.393464570000006
sbag33
a(igeom
LatLng
p974
(dp975
g12
F43.666056249999997
sg13
F-79.392325510000006
sba(igeom
LatLng
p976
(dp977
g12
F43.665936989999999
sg13
F-79.391887609999998
sbag35
a(igeom
LatLng
p978
(dp979
g12
F43.665081000000001
sg13
F-79.391238000000001
sbag37
a(igeom
LatLng
p980
(dp981
g12
F43.664937999999999
sg13
F-79.384557000000001
sba(igeom
LatLng
p982
(dp983
g12
F43.666288000000002
sg13
F-79.378313000000006
sba(igeom
LatLng
p984
(dp985
g12
F43.666505999999998
sg13
F-79.377251000000001
sba(igeom
LatLng
p986
(dp987
g12
F43.666420000000002
sg13
F-79.376457000000002
sba(igeom
LatLng
p988
(dp989
g12
F43.666474999999998
sg13
F-79.375812999999994
sba(igeom
LatLng
p990
(dp991
g12
F43.66677
sg13
F-79.375136999999995
sba(igeom
LatLng
p992
(dp993
g12
F43.667088
sg13
F-79.374644000000004
sba(igeom
LatLng
p994
(dp995
g12
F43.667895000000001
sg13
F-79.370887999999994
sbag39
a(igeom
LatLng
p996
(dp997
g12
F43.671495999999998
sg13
F-79.370909999999995
sbag41
a(igeom
LatLng
p998
(dp999
g12
F43.671751999999998
sg13
F-79.370953
sba(igeom
LatLng
p1000
(dp1001
g12
F43.671892
sg13
F-79.370887999999994
sba(igeom
LatLng
p1002
(dp1003
g12
F43.672018000000001
sg13
F-79.370760000000004
sba(igeom
LatLng
p1004
(dp1005
g12
F43.672573999999997
sg13
F-79.369837000000004
sba(igeom
LatLng
p1006
(dp1007
g12
F43.672961999999998
sg13
F-79.369332999999997
sbag43
assI2
(dp1008
I0
(lp1009
g10
ag14
ag47
ag49
ag16
ag119
ag317
ag18
ag939
ag941
ag943
ag945
ag947
ag20
ag22
ag957
ag961
ag24
asI1
(lp1010
g27
ag29
ag31
ag964
ag966
ag968
ag972
ag33
ag974
ag976
ag35
ag37
ag984
ag986
ag988
ag990
ag992
ag39
ag41
ag1002
ag1006
ag43
assI3
(dp1011
I0
(lp1012
g10
ag14
ag47
ag49
ag16
ag119
ag317
ag535
ag561
ag18
ag929
ag935
ag937
ag939
ag941
ag943
ag945
ag947
ag949
ag20
ag951
ag22
ag953
ag955
ag957
ag959
ag961
ag24
asI1
(lp1013
g27
ag29
ag31
ag964
ag966
ag968
ag970
ag972
ag33
ag974
ag976
ag35
ag37
ag980
ag982
ag984
ag986
ag988
ag990
ag992
ag994
ag39
ag996
ag41
ag998
ag1000
ag1002
ag1004
ag1006
ag43
assI1
(dp1014
I0
(lp1015
g10
ag14
ag47
ag49
ag16
ag18
ag939
ag943
ag947
ag20
ag22
ag961
ag24
asI1
(lp1016
g27
ag29
ag31
ag964
ag966
ag33
ag974
ag35
ag37
ag984
ag988
ag992
ag39
ag41
ag1006
ag43
asssS'snapgraph'
p1017
ccopy_reg
_reconstructor
p1018
(csnapgraph
SnapGraph
p1019
c__builtin__
object
p1020
NtRp1021
(dp1022
S'use_vert_only_floyd_warshall'
p1023
I00
sS'plinename2pts'
p1024
(dp1025
S'1'
g963
sS'0'
g46
ssg4
NsS'use_floyd_warshall'
p1026
I00
sS'plinename_to_ptidx_to_mapl'
p1027
(dp1028
S'1'
(lp1029
I0
aF463.03651092035898
aF2565.90151780519
aF2644.5667525207405
aF2983.1476667631032
aF3020.4844912500666
aF3063.4241531748207
aF3099.1503708450296
aF3142.9174878079029
aF3196.4435479981462
aF3234.0590555532176
aF3284.3181346874467
aF3345.6828429153165
aF3517.1317421579279
aF4025.9999890694617
aF4549.9056037836899
aF4638.6511672473025
aF4703.1926642760654
aF4755.3236308913065
aF4818.7905077752966
aF4871.890785112555
aF5186.869522075227
aF5298.8280755179248
aF5684.6727021098113
aF5698.701480716546
aF5714.1136777228621
aF5730.5261653200241
aF5747.9026083830113
aF5844.4562295315291
aF5903.6217337190574
aF5959.6309923929848
asS'0'
(lp1030
I0
aF463.03651092035898
aF2565.90151780519
aF2644.5667525207405
aF2983.1476667631032
aF2984.3638515565026
aF2985.5641678182178
aF2986.7803526578809
aF2987.9806690103892
aF2989.1968538984702
aF2990.3971703374459
aF2991.6133552706656
aF2992.8136717998186
aF2994.029856779302
aF2995.2301733968798
aF2996.4463584236555
aF2997.6466751286798
aF2998.8628602011086
aF3000.0631769974939
aF3001.2793621174092
aF3002.4796790014457
aF3003.695864167431
aF3004.8961811392769
aF3006.1123663522339
aF3007.3126834143045
aF3008.5288686745539
aF3009.7291858248441
aF3010.945371131872
aF3012.1456883705869
aF3013.3618737226566
aF3014.5621910495911
aF3015.7783764484388
aF3016.9786938643665
aF3018.1948793095753
aF3019.395196815522
aF3020.6113823091482
aF3021.811699902541
aF3023.0278854418202
aF3024.2282031244113
aF3025.175805248341
aF3026.3867340027782
aF3027.5953031217809
aF3028.8062318498551
aF3030.0148010325674
aF3031.2257297325887
aF3032.4342989760876
aF3033.6452276500313
aF3034.8537969547529
aF3036.0647256002712
aF3037.2732949666188
aF3038.4842235857736
aF3039.6927930133438
aF3040.9037216053903
aF3042.112291094586
aF3043.323219658294
aF3044.5317892095181
aF3045.7427177461173
aF3046.9512873581266
aF3048.1622158677037
aF3049.3707855417751
aF3050.581714022554
aF3051.7902837578135
aF3053.0012122112848
aF3054.2097820098161
aF3055.4207104351472
aF3056.6292802940598
aF3057.8402086931142
aF3059.0487786157346
aF3060.2597069866488
aF3061.4682769696501
aF3062.6792053145732
aF3063.8877753600391
aF3065.0987036769088
aF3066.3072737848388
aF3067.5182020743136
aF3068.7267722430274
aF3069.9377005057654
aF3071.1462707369428
aF3072.3571989722859
aF3073.5657692634404
aF3074.7766974720466
aF3075.9852678264715
aF3077.1961960063659
aF3078.4047664211707
aF3079.6156945743282
aF3080.8242650515963
aF3082.0351931780169
aF3083.2437637160679
aF3084.4546918148076
aF3085.6632624144813
aF3086.8741904857388
aF3088.0827611470354
aF3089.2936891919285
aF3090.5022599140411
aF3091.713187930508
aF3092.9217587146463
aF3094.1326867047487
aF3095.341257550509
aF3096.5521855115262
aF3097.7607564193117
aF3098.9716843526476
aF3100.1802553228617
aF3101.3911832290878
aF3102.5997542601172
aF3103.8106821386618
aF3105.019253231716
aF3106.2301810835233
aF3107.4387522390393
aF3108.6496800635377
aF3109.8582512815151
aF3111.0691790778724
aF3112.2777503570342
aF3113.4886781260825
aF3114.6972494677052
aF3115.9081772106742
aF3117.1167486143549
aF3118.3276763299282
aF3119.5362477939861
aF3120.7471754821636
aF3121.9557470082791
aF3123.1666746697188
aF3124.3752462561779
aF3125.5861738898489
aF3126.7947455383651
aF3128.0056731446398
aF3129.2142448543391
aF3130.4251724332175
aF3131.6337442049735
aF3132.8446717557977
aF3134.0532435887367
aF3135.2641711128226
aF3136.4727430082216
aF3137.6836705042529
aF3138.8922424604311
aF3140.1031699294385
aF3141.3117419493196
aF3142.5226693915893
aF3143.7312414714429
aF3144.9401630536286
aF3146.1476751988307
aF3147.356596779412
aF3148.5641090518025
aF3149.7730306307858
aF3150.9805430297051
aF3152.1894646077908
aF3153.396977133898
aF3154.6058987118067
aF3155.8134113649339
aF3157.022332941945
aF3158.2298457219254
aF3159.4387672994667
aF3160.6462802066344
aF3161.8552017825641
aF3163.0627148160929
aF3164.2716363911318
aF3165.4791495508539
aF3166.6880711249951
aF3167.8955844117372
aF3169.1045059849948
aF3170.3120193990912
aF3171.5209409721579
aF3172.7284545122802
aF3173.9373760844496
aF3175.1448897517585
aF3176.3538113216164
aF3177.5613251142918
aF3178.770246683966
aF3179.9777606048215
aF3181.1866821728981
aF3182.3941962201138
aF3183.6031177872928
aF3184.810631961695
aF3186.0195535279904
aF3187.2270678292439
aF3188.4359893946416
aF3189.6435038234158
aF3190.852425389337
aF3192.0599399439689
aF3193.2688615082925
aF3194.4763761912709
aF3195.685297755404
aF3196.892812563246
aF3198.1017341257748
aF3199.3092490601434
aF3200.5181706224816
aF3201.7256856838685
aF3202.9346072446092
aF3204.1421224323549
aF3205.3510439914985
aF3206.5585593074229
aF3207.7674808649617
aF3208.9749963064187
aF3210.1839178637811
aF3211.391433434243
aF3212.6003549907082
aF3213.8078706863676
aF3215.0167922412284
aF3216.224308063905
aF3217.4332296192961
aF3218.6407455691574
aF3219.8496671243511
aF3221.0571832012297
aF3222.2661047555471
aF3223.4736209586163
aF3224.6825425120155
aF3225.8900588391202
aF3227.098980390936
aF3228.3064968495346
aF3229.5154184004532
aF3230.7229349822605
aF3231.9318565329818
aF3233.1393732427996
aF3234.3482947912235
aF3235.5558116273987
aF3236.7647331756325
aF3237.9722501389915
aF3239.1811716870488
aF3240.3886887774238
aF3241.5976103231701
aF3242.805127541063
aF3244.0140490859262
aF3245.2215664306677
aF3246.4304879753336
aF3247.6380054464321
aF3248.8469269909147
aF3250.054444588035
aF3251.2633661316204
aF3252.47088385493
aF3253.6798053962111
aF3254.8873232478645
aF3256.0962447889624
aF3257.303762766805
aF3258.5126843070057
aF3259.7202024120306
aF3260.9291239520412
aF3262.136642182094
aF3263.3455637198003
aF3264.5530820781964
aF3265.762003614313
aF3266.9695221002262
aF3268.1784436354387
aF3269.3859622475402
aF3270.5948837825763
aF3271.8024025216923
aF3273.0113240558317
aF3274.2188429217949
aF3275.4277644564577
aF3276.6352834486088
aF3277.8541153396955
aF3279.0554717525065
aF3280.2743036159582
aF3281.4756600940932
aF3282.6944919302559
aF3283.8958484753457
aF3285.1146802828898
aF3286.3160368966446
aF3287.5348686785765
aF3288.7362253576553
aF3289.9550571119798
aF3291.1564138584804
aF3292.375245585516
aF3293.576602398583
aF3294.5265599388022
aF3295.7380922207794
aF3296.9359465091766
aF3298.147478722623
aF3299.3453329692757
aF3300.5568651164576
aF3301.7547193213545
aF3302.966251401218
aF3304.1641055649502
aF3305.375637579235
aF3306.5734917017849
aF3307.7850236492782
aF3308.9828777312491
aF3310.1944096100528
aF3311.3922636502739
aF3312.6037954620224
aF3313.8016494616527
aF3315.0131812090349
aF3316.2110351674887
aF3317.4225668471304
aF3318.6204207655787
aF3319.8319523786927
aF3321.0298062548054
aF3322.2413378000733
aF3323.4391916338627
aF3324.6507231128662
aF3325.8485769066383
aF3327.0601083203269
aF3328.2579620735082
aF3329.4694934186655
aF3330.6673471289432
aF3331.878878407309
aF3333.0767320769901
aF3334.2882632903038
aF3335.4861169199735
aF3336.6976480647559
aF3337.8955016521022
aF3339.1070327294078
aF3340.3048862761634
aF3341.516417289788
aF3342.7142707941957
aF3343.9258017402381
aF3345.1236552029077
aF3346.3351860807875
aF3347.5330395040255
aF3348.7445703163262
aF3349.9424236972286
aF3351.1539544431598
aF3352.3518077828921
aF3353.5633384613461
aF3354.7611917604936
aF3355.9727223724194
aF3357.1705756303904
aF3358.3821061759468
aF3359.5799593915881
aF3360.7914898706163
aF3361.9893430450811
aF3363.2008734570541
aF3364.39872659094
aF3365.6102569342229
aF3366.8081100275181
aF3368.0196403066984
aF3369.2174933582319
aF3370.4290235698295
aF3371.626876579619
aF3372.8384067234761
aF3374.03625969326
aF3375.2477897699036
aF3376.4456426990969
aF3377.6571727105829
aF3378.8550255968612
aF3380.066555540343
aF3381.2644083866157
aF3382.4759382630423
aF3383.6737910664001
aF3384.8853208768255
aF3386.0831736419168
aF3387.294703385814
aF3388.4925561091495
aF3389.7040857866773
aF3390.9019384671033
aF3392.1134680768901
aF3393.3113207178903
aF3394.5228502601999
aF3395.7207028600301
aF3396.9322323371825
aF3398.1300848940914
aF3399.3416143044519
aF3400.5394668213617
aF3401.7509961630321
aF3402.9488486387713
aF3404.160377915548
aF3405.3582303495255
aF3406.569759560723
aF3407.7676119535299
aF3408.9791410964594
aF3410.176993446943
aF3411.3885225218683
aF3412.5863748317611
aF3413.7979038425833
aF3414.995756111879
aF3416.2072850553823
aF3417.4051372823487
aF3418.6166661583743
aF3419.8145183453353
aF3421.0260471536203
aF3422.2238992994112
aF3423.4354280428024
aF3424.6332801462518
aF3425.8448088228511
aF3427.0426608868806
aF3428.2541894950532
aF3429.4520415173329
aF3430.6635700581865
aF3431.8614220387162
aF3433.0729505144122
aF3434.2708024531862
aF3435.482330861405
aF3436.6801827595941
aF3437.8917111012847
aF3439.0895629582974
aF3440.3010912344084
aF3441.4989430508303
aF3442.7104712586734
aF3443.9083230327656
aF3445.1198511752928
aF3446.3177029099538
aF3447.5292309850038
aF3448.7270826785002
aF3449.9386106850184
aF3451.1364623361851
aF3452.347990277809
aF3453.545841887214
aF3454.757369762573
aF3455.9552213325587
aF3457.1667491387007
aF3458.3646006657768
aF3459.576128407025
aF3460.7739798929188
aF3461.9855075671112
aF3463.1833590118467
aF3464.3948866176124
aF3465.592738022337
aF3466.8042655630506
aF3468.0021169265988
aF3469.213644400415
aF3470.4114957210541
aF3471.6230231273926
aF3472.820874408606
aF3474.0324017493654
aF3475.2302529888229
aF3476.4417802618409
aF3477.6396314601284
aF3478.8511586682525
aF3480.0490098241985
aF3481.2605369655307
aF3482.4583880814776
aF3483.6699151541193
aF3484.8677662288956
aF3486.0792932366435
aF3487.277144269658
aF3488.4886712108773
aF3489.6865222027272
aF3490.898049075678
aF3492.0959000269436
aF3493.3074268333658
aF3494.505277742875
aF3495.7168044831906
aF3496.9146553509499
aF3498.1261820240516
aF3499.3240328523857
aF3500.5355594581679
aF3501.7334102435866
aF3502.9449367816273
aF3504.1427875270469
aF3505.3543139995081
aF3506.5521647037458
aF3507.7636911108912
aF3508.9615417739583
aF3510.1730681123081
aF3511.3709187330519
aF3512.5824450041878
aF3513.7802955855
aF3514.9918217920049
aF3516.1896723309756
aF3517.1327181924125
aF4026.0009651039463
aF4549.9065798181746
aF4638.6521432817872
aF4703.1936403105501
aF4755.3246069257912
aF4818.7914838097813
aF4871.8917611470397
aF5186.8704981097117
aF5298.8290515524095
aF5684.673678144296
aF5698.7024567510307
aF5714.1146537573468
aF5730.5271413545088
aF5747.9035844174959
aF5844.4572055660137
aF5903.622709753542
aF5959.6319684274695
assS'si_linesegaddrs_by_gridsquareidx'
p1031
(lp1032
c__builtin__
set
p1033
((lp1034
g1018
(csnapgraph
PtAddr
p1035
g1020
NtRp1036
(dp1037
S'plinename'
p1038
S'1'
sS'ptidx'
p1039
I0
sbag1018
(g1035
g1020
NtRp1040
(dp1041
g1038
S'0'
sg1039
I0
sbatRp1042
ag1033
((lp1043
g1036
ag1018
(g1035
g1020
NtRp1044
(dp1045
g1038
S'1'
sg1039
I1
sbag1018
(g1035
g1020
NtRp1046
(dp1047
g1038
S'0'
sg1039
I1
sbag1040
atRp1048
ag1033
((lp1049
g1044
ag1046
atRp1050
ag1033
((lp1051
g1044
ag1046
atRp1052
ag1033
((lp1053
g1044
ag1046
atRp1054
ag1033
((lp1055
g1044
ag1046
atRp1056
ag1033
((lp1057
g1044
ag1046
atRp1058
ag1033
((lp1059
g1044
ag1046
atRp1060
ag1033
((lp1061
g1044
ag1046
atRp1062
ag1033
((lp1063
g1044
ag1046
atRp1064
ag1033
((lp1065
g1044
ag1046
atRp1066
ag1033
((lp1067
g1044
ag1046
atRp1068
ag1033
((lp1069
g1044
ag1046
atRp1070
ag1033
((lp1071
g1044
ag1046
atRp1072
ag1033
((lp1073
g1044
ag1046
atRp1074
ag1033
((lp1075
g1044
ag1046
atRp1076
ag1033
((lp1077
g1044
ag1046
atRp1078
ag1033
((lp1079
g1044
ag1046
atRp1080
ag1033
((lp1081
g1044
ag1046
atRp1082
ag1033
((lp1083
g1044
ag1046
atRp1084
ag1033
((lp1085
g1044
ag1046
atRp1086
ag1033
((lp1087
g1044
ag1046
atRp1088
ag1033
((lp1089
g1044
ag1046
atRp1090
ag1033
((ltRp1091
ag1033
((ltRp1092
ag1033
((ltRp1093
ag1033
((ltRp1094
ag1033
((ltRp1095
ag1033
((ltRp1096
ag1033
((ltRp1097
ag1033
((ltRp1098
ag1033
((ltRp1099
ag1033
((ltRp1100
ag1033
((ltRp1101
ag1033
((ltRp1102
ag1033
((ltRp1103
ag1033
((ltRp1104
ag1033
((ltRp1105
ag1033
((ltRp1106
ag1033
((ltRp1107
ag1033
((ltRp1108
ag1033
((ltRp1109
ag1033
((ltRp1110
ag1033
((ltRp1111
ag1033
((ltRp1112
ag1033
((ltRp1113
ag1033
((lp1114
g1036
ag1040
atRp1115
ag1033
((lp1116
g1036
ag1044
ag1046
ag1040
atRp1117
ag1033
((lp1118
g1044
ag1046
atRp1119
ag1033
((lp1120
g1044
ag1046
atRp1121
ag1033
((lp1122
g1044
ag1046
atRp1123
ag1033
((lp1124
g1044
ag1046
atRp1125
ag1033
((lp1126
g1044
ag1046
atRp1127
ag1033
((lp1128
g1044
ag1046
atRp1129
ag1033
((lp1130
g1044
ag1046
atRp1131
ag1033
((lp1132
g1044
ag1046
atRp1133
ag1033
((lp1134
g1044
ag1046
atRp1135
ag1033
((lp1136
g1044
ag1046
atRp1137
ag1033
((lp1138
g1044
ag1046
atRp1139
ag1033
((lp1140
g1044
ag1046
atRp1141
ag1033
((lp1142
g1044
ag1046
atRp1143
ag1033
((lp1144
g1044
ag1046
atRp1145
ag1033
((lp1146
g1044
ag1046
atRp1147
ag1033
((lp1148
g1044
ag1046
atRp1149
ag1033
((lp1150
g1044
ag1046
atRp1151
ag1033
((lp1152
g1044
ag1046
atRp1153
ag1033
((lp1154
g1044
ag1046
atRp1155
ag1033
((lp1156
g1044
ag1046
atRp1157
ag1033
((lp1158
g1044
ag1046
atRp1159
ag1033
((ltRp1160
ag1033
((ltRp1161
ag1033
((ltRp1162
ag1033
((ltRp1163
ag1033
((ltRp1164
ag1033
((ltRp1165
ag1033
((ltRp1166
ag1033
((ltRp1167
ag1033
((ltRp1168
ag1033
((ltRp1169
ag1033
((ltRp1170
ag1033
((ltRp1171
ag1033
((ltRp1172
ag1033
((ltRp1173
ag1033
((ltRp1174
ag1033
((ltRp1175
ag1033
((ltRp1176
ag1033
((ltRp1177
ag1033
((ltRp1178
ag1033
((ltRp1179
ag1033
((ltRp1180
ag1033
((ltRp1181
ag1033
((ltRp1182
ag1033
((lp1183
g1036
ag1040
atRp1184
ag1033
((lp1185
g1036
ag1044
ag1046
ag1040
atRp1186
ag1033
((lp1187
g1044
ag1046
atRp1188
ag1033
((lp1189
g1044
ag1046
atRp1190
ag1033
((lp1191
g1044
ag1046
atRp1192
ag1033
((lp1193
g1044
ag1046
atRp1194
ag1033
((lp1195
g1044
ag1046
atRp1196
ag1033
((lp1197
g1044
ag1046
atRp1198
ag1033
((lp1199
g1044
ag1046
atRp1200
ag1033
((lp1201
g1044
ag1046
atRp1202
ag1033
((lp1203
g1044
ag1046
atRp1204
ag1033
((lp1205
g1044
ag1046
atRp1206
ag1033
((lp1207
g1044
ag1046
atRp1208
ag1033
((lp1209
g1044
ag1046
atRp1210
ag1033
((lp1211
g1044
ag1046
atRp1212
ag1033
((lp1213
g1044
ag1046
atRp1214
ag1033
((lp1215
g1044
ag1046
atRp1216
ag1033
((lp1217
g1044
ag1046
atRp1218
ag1033
((lp1219
g1044
ag1046
atRp1220
ag1033
((lp1221
g1044
ag1046
atRp1222
ag1033
((lp1223
g1044
ag1046
atRp1224
ag1033
((lp1225
g1044
ag1046
atRp1226
ag1033
((lp1227
g1044
ag1046
atRp1228
ag1033
((ltRp1229
ag1033
((ltRp1230
ag1033
((ltRp1231
ag1033
((ltRp1232
ag1033
((ltRp1233
ag1033
((ltRp1234
ag1033
((ltRp1235
ag1033
((ltRp1236
ag1033
((ltRp1237
ag1033
((ltRp1238
ag1033
((ltRp1239
ag1033
((ltRp1240
ag1033
((ltRp1241
ag1033
((ltRp1242
ag1033
((ltRp1243
ag1033
((ltRp1244
ag1033
((ltRp1245
ag1033
((ltRp1246
ag1033
((ltRp1247
ag1033
((ltRp1248
ag1033
((ltRp1249
ag1033
((ltRp1250
ag1033
((ltRp1251
ag1033
((lp1252
g1036
ag1040
atRp1253
ag1033
((lp1254
g1036
ag1044
ag1046
ag1040
atRp1255
ag1033
((lp1256
g1044
ag1046
atRp1257
ag1033
((lp1258
g1044
ag1046
atRp1259
ag1033
((lp1260
g1044
ag1046
atRp1261
ag1033
((lp1262
g1044
ag1046
atRp1263
ag1033
((lp1264
g1044
ag1046
atRp1265
ag1033
((lp1266
g1044
ag1046
atRp1267
ag1033
((lp1268
g1044
ag1046
atRp1269
ag1033
((lp1270
g1044
ag1046
atRp1271
ag1033
((lp1272
g1044
ag1046
atRp1273
ag1033
((lp1274
g1044
ag1046
atRp1275
ag1033
((lp1276
g1044
ag1046
atRp1277
ag1033
((lp1278
g1044
ag1046
atRp1279
ag1033
((lp1280
g1044
ag1046
atRp1281
ag1033
((lp1282
g1044
ag1046
atRp1283
ag1033
((lp1284
g1044
ag1046
atRp1285
ag1033
((lp1286
g1044
ag1046
atRp1287
ag1033
((lp1288
g1044
ag1046
atRp1289
ag1033
((lp1290
g1044
ag1046
atRp1291
ag1033
((lp1292
g1044
ag1046
atRp1293
ag1033
((lp1294
g1044
ag1046
atRp1295
ag1033
((lp1296
g1044
ag1046
atRp1297
ag1033
((ltRp1298
ag1033
((ltRp1299
ag1033
((ltRp1300
ag1033
((ltRp1301
ag1033
((ltRp1302
ag1033
((ltRp1303
ag1033
((ltRp1304
ag1033
((ltRp1305
ag1033
((ltRp1306
ag1033
((ltRp1307
ag1033
((ltRp1308
ag1033
((ltRp1309
ag1033
((ltRp1310
ag1033
((ltRp1311
ag1033
((ltRp1312
ag1033
((ltRp1313
ag1033
((ltRp1314
ag1033
((ltRp1315
ag1033
((ltRp1316
ag1033
((ltRp1317
ag1033
((ltRp1318
ag1033
((ltRp1319
ag1033
((ltRp1320
ag1033
((lp1321
g1036
ag1040
atRp1322
ag1033
((lp1323
g1036
ag1044
ag1046
ag1040
atRp1324
ag1033
((lp1325
g1044
ag1046
atRp1326
ag1033
((lp1327
g1044
ag1046
atRp1328
ag1033
((lp1329
g1044
ag1046
atRp1330
ag1033
((lp1331
g1044
ag1046
atRp1332
ag1033
((lp1333
g1044
ag1046
atRp1334
ag1033
((lp1335
g1044
ag1046
atRp1336
ag1033
((lp1337
g1044
ag1046
atRp1338
ag1033
((lp1339
g1044
ag1046
atRp1340
ag1033
((lp1341
g1044
ag1046
atRp1342
ag1033
((lp1343
g1044
ag1046
atRp1344
ag1033
((lp1345
g1044
ag1046
atRp1346
ag1033
((lp1347
g1044
ag1046
atRp1348
ag1033
((lp1349
g1044
ag1046
atRp1350
ag1033
((lp1351
g1044
ag1046
atRp1352
ag1033
((lp1353
g1044
ag1046
atRp1354
ag1033
((lp1355
g1044
ag1046
atRp1356
ag1033
((lp1357
g1044
ag1046
atRp1358
ag1033
((lp1359
g1044
ag1046
atRp1360
ag1033
((lp1361
g1044
ag1046
atRp1362
ag1033
((lp1363
g1044
ag1046
atRp1364
ag1033
((lp1365
g1044
ag1046
atRp1366
ag1033
((ltRp1367
ag1033
((ltRp1368
ag1033
((ltRp1369
ag1033
((ltRp1370
ag1033
((ltRp1371
ag1033
((ltRp1372
ag1033
((ltRp1373
ag1033
((ltRp1374
ag1033
((ltRp1375
ag1033
((ltRp1376
ag1033
((ltRp1377
ag1033
((ltRp1378
ag1033
((ltRp1379
ag1033
((ltRp1380
ag1033
((ltRp1381
ag1033
((ltRp1382
ag1033
((ltRp1383
ag1033
((ltRp1384
ag1033
((ltRp1385
ag1033
((ltRp1386
ag1033
((ltRp1387
ag1033
((ltRp1388
ag1033
((ltRp1389
ag1033
((ltRp1390
ag1033
((lp1391
g1044
ag1046
atRp1392
ag1033
((lp1393
g1044
ag1046
atRp1394
ag1033
((lp1395
g1044
ag1046
atRp1396
ag1033
((lp1397
g1044
ag1046
atRp1398
ag1033
((lp1399
g1044
ag1046
atRp1400
ag1033
((lp1401
g1044
ag1046
atRp1402
ag1033
((lp1403
g1044
ag1046
atRp1404
ag1033
((lp1405
g1044
ag1046
atRp1406
ag1033
((lp1407
g1044
ag1046
atRp1408
ag1033
((lp1409
g1044
ag1046
atRp1410
ag1033
((lp1411
g1044
ag1046
atRp1412
ag1033
((lp1413
g1044
ag1046
atRp1414
ag1033
((lp1415
g1044
ag1046
atRp1416
ag1033
((lp1417
g1044
ag1046
atRp1418
ag1033
((lp1419
g1044
ag1046
atRp1420
ag1033
((lp1421
g1044
ag1046
atRp1422
ag1033
((lp1423
g1044
ag1046
atRp1424
ag1033
((lp1425
g1044
ag1046
atRp1426
ag1033
((lp1427
g1044
ag1046
atRp1428
ag1033
((lp1429
g1044
ag1046
atRp1430
ag1033
((lp1431
g1044
ag1046
atRp1432
ag1033
((lp1433
g1044
ag1018
(g1035
g1020
NtRp1434
(dp1435
g1038
S'1'
sg1039
I2
sbag1018
(g1035
g1020
NtRp1436
(dp1437
g1038
S'0'
sg1039
I2
sbag1046
atRp1438
ag1033
((ltRp1439
ag1033
((ltRp1440
ag1033
((ltRp1441
ag1033
((lp1442
g1018
(g1035
g1020
NtRp1443
(dp1444
g1038
S'0'
sg1039
I207
sbag1018
(g1035
g1020
NtRp1445
(dp1446
g1038
S'0'
sg1039
I208
sbag1018
(g1035
g1020
NtRp1447
(dp1448
g1038
S'0'
sg1039
I209
sbag1018
(g1035
g1020
NtRp1449
(dp1450
g1038
S'0'
sg1039
I210
sbag1018
(g1035
g1020
NtRp1451
(dp1452
g1038
S'0'
sg1039
I211
sbag1018
(g1035
g1020
NtRp1453
(dp1454
g1038
S'0'
sg1039
I212
sbag1018
(g1035
g1020
NtRp1455
(dp1456
g1038
S'0'
sg1039
I213
sbag1018
(g1035
g1020
NtRp1457
(dp1458
g1038
S'0'
sg1039
I214
sbag1018
(g1035
g1020
NtRp1459
(dp1460
g1038
S'0'
sg1039
I215
sbag1018
(g1035
g1020
NtRp1461
(dp1462
g1038
S'0'
sg1039
I216
sbag1018
(g1035
g1020
NtRp1463
(dp1464
g1038
S'0'
sg1039
I217
sbag1018
(g1035
g1020
NtRp1465
(dp1466
g1038
S'0'
sg1039
I218
sbag1018
(g1035
g1020
NtRp1467
(dp1468
g1038
S'0'
sg1039
I219
sbag1018
(g1035
g1020
NtRp1469
(dp1470
g1038
S'0'
sg1039
I220
sbag1018
(g1035
g1020
NtRp1471
(dp1472
g1038
S'0'
sg1039
I221
sbag1018
(g1035
g1020
NtRp1473
(dp1474
g1038
S'0'
sg1039
I222
sbag1018
(g1035
g1020
NtRp1475
(dp1476
g1038
S'0'
sg1039
I182
sbag1018
(g1035
g1020
NtRp1477
(dp1478
g1038
S'0'
sg1039
I183
sbag1018
(g1035
g1020
NtRp1479
(dp1480
g1038
S'0'
sg1039
I184
sbag1018
(g1035
g1020
NtRp1481
(dp1482
g1038
S'0'
sg1039
I185
sbag1018
(g1035
g1020
NtRp1483
(dp1484
g1038
S'0'
sg1039
I186
sbag1018
(g1035
g1020
NtRp1485
(dp1486
g1038
S'0'
sg1039
I187
sbag1018
(g1035
g1020
NtRp1487
(dp1488
g1038
S'0'
sg1039
I188
sbag1018
(g1035
g1020
NtRp1489
(dp1490
g1038
S'0'
sg1039
I189
sbag1018
(g1035
g1020
NtRp1491
(dp1492
g1038
S'0'
sg1039
I190
sbag1018
(g1035
g1020
NtRp1493
(dp1494
g1038
S'0'
sg1039
I191
sbag1018
(g1035
g1020
NtRp1495
(dp1496
g1038
S'0'
sg1039
I192
sbag1018
(g1035
g1020
NtRp1497
(dp1498
g1038
S'0'
sg1039
I193
sbag1018
(g1035
g1020
NtRp1499
(dp1500
g1038
S'0'
sg1039
I194
sbag1018
(g1035
g1020
NtRp1501
(dp1502
g1038
S'0'
sg1039
I195
sbag1018
(g1035
g1020
NtRp1503
(dp1504
g1038
S'0'
sg1039
I196
sbag1018
(g1035
g1020
NtRp1505
(dp1506
g1038
S'0'
sg1039
I197
sbag1018
(g1035
g1020
NtRp1507
(dp1508
g1038
S'0'
sg1039
I198
sbag1018
(g1035
g1020
NtRp1509
(dp1510
g1038
S'0'
sg1039
I199
sbag1018
(g1035
g1020
NtRp1511
(dp1512
g1038
S'0'
sg1039
I200
sbag1018
(g1035
g1020
NtRp1513
(dp1514
g1038
S'0'
sg1039
I201
sbag1018
(g1035
g1020
NtRp1515
(dp1516
g1038
S'0'
sg1039
I202
sbag1018
(g1035
g1020
NtRp1517
(dp1518
g1038
S'0'
sg1039
I203
sbag1018
(g1035
g1020
NtRp1519
(dp1520
g1038
S'0'
sg1039
I204
sbag1018
(g1035
g1020
NtRp1521
(dp1522
g1038
S'0'
sg1039
I205
sbag1018
(g1035
g1020
NtRp1523
(dp1524
g1038
S'0'
sg1039
I206
sbatRp1525
ag1033
((lp1526
g1473
ag1018
(g1035
g1020
NtRp1527
(dp1528
g1038
S'0'
sg1039
I223
sbag1018
(g1035
g1020
NtRp1529
(dp1530
g1038
S'0'
sg1039
I224
sbag1018
(g1035
g1020
NtRp1531
(dp1532
g1038
S'0'
sg1039
I225
sbag1018
(g1035
g1020
NtRp1533
(dp1534
g1038
S'0'
sg1039
I226
sbag1018
(g1035
g1020
NtRp1535
(dp1536
g1038
S'0'
sg1039
I227
sbag1018
(g1035
g1020
NtRp1537
(dp1538
g1038
S'0'
sg1039
I228
sbag1018
(g1035
g1020
NtRp1539
(dp1540
g1038
S'0'
sg1039
I229
sbag1018
(g1035
g1020
NtRp1541
(dp1542
g1038
S'0'
sg1039
I230
sbag1018
(g1035
g1020
NtRp1543
(dp1544
g1038
S'0'
sg1039
I231
sbag1018
(g1035
g1020
NtRp1545
(dp1546
g1038
S'0'
sg1039
I232
sbag1018
(g1035
g1020
NtRp1547
(dp1548
g1038
S'0'
sg1039
I233
sbag1018
(g1035
g1020
NtRp1549
(dp1550
g1038
S'0'
sg1039
I234
sbag1018
(g1035
g1020
NtRp1551
(dp1552
g1038
S'0'
sg1039
I235
sbag1018
(g1035
g1020
NtRp1553
(dp1554
g1038
S'0'
sg1039
I236
sbag1018
(g1035
g1020
NtRp1555
(dp1556
g1038
S'0'
sg1039
I237
sbag1018
(g1035
g1020
NtRp1557
(dp1558
g1038
S'0'
sg1039
I238
sbag1018
(g1035
g1020
NtRp1559
(dp1560
g1038
S'0'
sg1039
I239
sbag1018
(g1035
g1020
NtRp1561
(dp1562
g1038
S'0'
sg1039
I240
sbag1018
(g1035
g1020
NtRp1563
(dp1564
g1038
S'0'
sg1039
I241
sbag1018
(g1035
g1020
NtRp1565
(dp1566
g1038
S'0'
sg1039
I242
sbag1018
(g1035
g1020
NtRp1567
(dp1568
g1038
S'0'
sg1039
I243
sbag1018
(g1035
g1020
NtRp1569
(dp1570
g1038
S'0'
sg1039
I244
sbag1018
(g1035
g1020
NtRp1571
(dp1572
g1038
S'0'
sg1039
I245
sbag1018
(g1035
g1020
NtRp1573
(dp1574
g1038
S'0'
sg1039
I246
sbag1018
(g1035
g1020
NtRp1575
(dp1576
g1038
S'0'
sg1039
I247
sbag1018
(g1035
g1020
NtRp1577
(dp1578
g1038
S'0'
sg1039
I248
sbag1018
(g1035
g1020
NtRp1579
(dp1580
g1038
S'0'
sg1039
I249
sbag1018
(g1035
g1020
NtRp1581
(dp1582
g1038
S'0'
sg1039
I250
sbag1018
(g1035
g1020
NtRp1583
(dp1584
g1038
S'0'
sg1039
I251
sbag1018
(g1035
g1020
NtRp1585
(dp1586
g1038
S'0'
sg1039
I252
sbag1018
(g1035
g1020
NtRp1587
(dp1588
g1038
S'0'
sg1039
I253
sbag1018
(g1035
g1020
NtRp1589
(dp1590
g1038
S'0'
sg1039
I254
sbag1018
(g1035
g1020
NtRp1591
(dp1592
g1038
S'0'
sg1039
I255
sbag1018
(g1035
g1020
NtRp1593
(dp1594
g1038
S'0'
sg1039
I256
sbag1018
(g1035
g1020
NtRp1595
(dp1596
g1038
S'0'
sg1039
I257
sbag1018
(g1035
g1020
NtRp1597
(dp1598
g1038
S'0'
sg1039
I258
sbag1018
(g1035
g1020
NtRp1599
(dp1600
g1038
S'0'
sg1039
I259
sbag1018
(g1035
g1020
NtRp1601
(dp1602
g1038
S'0'
sg1039
I260
sbag1018
(g1035
g1020
NtRp1603
(dp1604
g1038
S'0'
sg1039
I261
sbag1018
(g1035
g1020
NtRp1605
(dp1606
g1038
S'0'
sg1039
I262
sbag1018
(g1035
g1020
NtRp1607
(dp1608
g1038
S'0'
sg1039
I263
sbag1018
(g1035
g1020
NtRp1609
(dp1610
g1038
S'0'
sg1039
I264
sbag1018
(g1035
g1020
NtRp1611
(dp1612
g1038
S'0'
sg1039
I265
sbag1018
(g1035
g1020
NtRp1613
(dp1614
g1038
S'0'
sg1039
I266
sbag1018
(g1035
g1020
NtRp1615
(dp1616
g1038
S'0'
sg1039
I267
sbag1018
(g1035
g1020
NtRp1617
(dp1618
g1038
S'0'
sg1039
I268
sbag1018
(g1035
g1020
NtRp1619
(dp1620
g1038
S'0'
sg1039
I269
sbag1018
(g1035
g1020
NtRp1621
(dp1622
g1038
S'0'
sg1039
I270
sbag1018
(g1035
g1020
NtRp1623
(dp1624
g1038
S'0'
sg1039
I271
sbag1018
(g1035
g1020
NtRp1625
(dp1626
g1038
S'0'
sg1039
I272
sbag1018
(g1035
g1020
NtRp1627
(dp1628
g1038
S'0'
sg1039
I273
sbag1018
(g1035
g1020
NtRp1629
(dp1630
g1038
S'0'
sg1039
I274
sbag1018
(g1035
g1020
NtRp1631
(dp1632
g1038
S'0'
sg1039
I275
sbag1018
(g1035
g1020
NtRp1633
(dp1634
g1038
S'0'
sg1039
I276
sbag1018
(g1035
g1020
NtRp1635
(dp1636
g1038
S'0'
sg1039
I277
sbag1018
(g1035
g1020
NtRp1637
(dp1638
g1038
S'0'
sg1039
I278
sbag1018
(g1035
g1020
NtRp1639
(dp1640
g1038
S'0'
sg1039
I279
sbag1018
(g1035
g1020
NtRp1641
(dp1642
g1038
S'0'
sg1039
I280
sbag1018
(g1035
g1020
NtRp1643
(dp1644
g1038
S'0'
sg1039
I281
sbag1018
(g1035
g1020
NtRp1645
(dp1646
g1038
S'0'
sg1039
I282
sbag1018
(g1035
g1020
NtRp1647
(dp1648
g1038
S'0'
sg1039
I283
sbag1018
(g1035
g1020
NtRp1649
(dp1650
g1038
S'0'
sg1039
I284
sbag1018
(g1035
g1020
NtRp1651
(dp1652
g1038
S'0'
sg1039
I285
sbag1018
(g1035
g1020
NtRp1653
(dp1654
g1038
S'0'
sg1039
I286
sbag1018
(g1035
g1020
NtRp1655
(dp1656
g1038
S'0'
sg1039
I287
sbag1018
(g1035
g1020
NtRp1657
(dp1658
g1038
S'0'
sg1039
I288
sbag1018
(g1035
g1020
NtRp1659
(dp1660
g1038
S'0'
sg1039
I289
sbag1018
(g1035
g1020
NtRp1661
(dp1662
g1038
S'0'
sg1039
I290
sbag1018
(g1035
g1020
NtRp1663
(dp1664
g1038
S'0'
sg1039
I291
sbag1018
(g1035
g1020
NtRp1665
(dp1666
g1038
S'0'
sg1039
I292
sbag1018
(g1035
g1020
NtRp1667
(dp1668
g1038
S'0'
sg1039
I293
sbag1018
(g1035
g1020
NtRp1669
(dp1670
g1038
S'0'
sg1039
I294
sbag1018
(g1035
g1020
NtRp1671
(dp1672
g1038
S'0'
sg1039
I295
sbag1018
(g1035
g1020
NtRp1673
(dp1674
g1038
S'0'
sg1039
I296
sbag1018
(g1035
g1020
NtRp1675
(dp1676
g1038
S'0'
sg1039
I297
sbag1018
(g1035
g1020
NtRp1677
(dp1678
g1038
S'0'
sg1039
I298
sbag1018
(g1035
g1020
NtRp1679
(dp1680
g1038
S'0'
sg1039
I299
sbag1018
(g1035
g1020
NtRp1681
(dp1682
g1038
S'0'
sg1039
I300
sbag1018
(g1035
g1020
NtRp1683
(dp1684
g1038
S'0'
sg1039
I301
sbag1018
(g1035
g1020
NtRp1685
(dp1686
g1038
S'0'
sg1039
I302
sbag1018
(g1035
g1020
NtRp1687
(dp1688
g1038
S'0'
sg1039
I303
sbag1018
(g1035
g1020
NtRp1689
(dp1690
g1038
S'0'
sg1039
I304
sbag1018
(g1035
g1020
NtRp1691
(dp1692
g1038
S'0'
sg1039
I305
sbag1018
(g1035
g1020
NtRp1693
(dp1694
g1038
S'0'
sg1039
I306
sbag1018
(g1035
g1020
NtRp1695
(dp1696
g1038
S'0'
sg1039
I307
sbag1018
(g1035
g1020
NtRp1697
(dp1698
g1038
S'0'
sg1039
I308
sbag1018
(g1035
g1020
NtRp1699
(dp1700
g1038
S'0'
sg1039
I309
sbag1018
(g1035
g1020
NtRp1701
(dp1702
g1038
S'0'
sg1039
I310
sbag1018
(g1035
g1020
NtRp1703
(dp1704
g1038
S'0'
sg1039
I311
sbag1018
(g1035
g1020
NtRp1705
(dp1706
g1038
S'0'
sg1039
I312
sbag1018
(g1035
g1020
NtRp1707
(dp1708
g1038
S'0'
sg1039
I313
sbag1018
(g1035
g1020
NtRp1709
(dp1710
g1038
S'0'
sg1039
I314
sbag1018
(g1035
g1020
NtRp1711
(dp1712
g1038
S'0'
sg1039
I315
sbag1018
(g1035
g1020
NtRp1713
(dp1714
g1038
S'0'
sg1039
I316
sbag1018
(g1035
g1020
NtRp1715
(dp1716
g1038
S'0'
sg1039
I317
sbag1018
(g1035
g1020
NtRp1717
(dp1718
g1038
S'0'
sg1039
I318
sbag1018
(g1035
g1020
NtRp1719
(dp1720
g1038
S'0'
sg1039
I319
sbag1018
(g1035
g1020
NtRp1721
(dp1722
g1038
S'0'
sg1039
I320
sbag1018
(g1035
g1020
NtRp1723
(dp1724
g1038
S'0'
sg1039
I321
sbag1018
(g1035
g1020
NtRp1725
(dp1726
g1038
S'0'
sg1039
I322
sbag1018
(g1035
g1020
NtRp1727
(dp1728
g1038
S'0'
sg1039
I323
sbag1018
(g1035
g1020
NtRp1729
(dp1730
g1038
S'0'
sg1039
I324
sbag1018
(g1035
g1020
NtRp1731
(dp1732
g1038
S'0'
sg1039
I325
sbag1018
(g1035
g1020
NtRp1733
(dp1734
g1038
S'0'
sg1039
I326
sbag1018
(g1035
g1020
NtRp1735
(dp1736
g1038
S'0'
sg1039
I327
sbag1018
(g1035
g1020
NtRp1737
(dp1738
g1038
S'0'
sg1039
I328
sbag1018
(g1035
g1020
NtRp1739
(dp1740
g1038
S'0'
sg1039
I329
sbag1018
(g1035
g1020
NtRp1741
(dp1742
g1038
S'0'
sg1039
I330
sbag1018
(g1035
g1020
NtRp1743
(dp1744
g1038
S'0'
sg1039
I331
sbag1018
(g1035
g1020
NtRp1745
(dp1746
g1038
S'0'
sg1039
I332
sbag1018
(g1035
g1020
NtRp1747
(dp1748
g1038
S'0'
sg1039
I333
sbag1018
(g1035
g1020
NtRp1749
(dp1750
g1038
S'0'
sg1039
I334
sbag1018
(g1035
g1020
NtRp1751
(dp1752
g1038
S'0'
sg1039
I335
sbag1018
(g1035
g1020
NtRp1753
(dp1754
g1038
S'0'
sg1039
I336
sbag1018
(g1035
g1020
NtRp1755
(dp1756
g1038
S'0'
sg1039
I337
sbag1018
(g1035
g1020
NtRp1757
(dp1758
g1038
S'0'
sg1039
I338
sbag1018
(g1035
g1020
NtRp1759
(dp1760
g1038
S'0'
sg1039
I339
sbag1018
(g1035
g1020
NtRp1761
(dp1762
g1038
S'0'
sg1039
I340
sbag1018
(g1035
g1020
NtRp1763
(dp1764
g1038
S'0'
sg1039
I341
sbag1018
(g1035
g1020
NtRp1765
(dp1766
g1038
S'0'
sg1039
I342
sbag1018
(g1035
g1020
NtRp1767
(dp1768
g1038
S'0'
sg1039
I343
sbag1018
(g1035
g1020
NtRp1769
(dp1770
g1038
S'0'
sg1039
I344
sbag1018
(g1035
g1020
NtRp1771
(dp1772
g1038
S'0'
sg1039
I345
sbag1018
(g1035
g1020
NtRp1773
(dp1774
g1038
S'0'
sg1039
I346
sbag1018
(g1035
g1020
NtRp1775
(dp1776
g1038
S'0'
sg1039
I347
sbag1018
(g1035
g1020
NtRp1777
(dp1778
g1038
S'0'
sg1039
I348
sbag1018
(g1035
g1020
NtRp1779
(dp1780
g1038
S'0'
sg1039
I349
sbag1018
(g1035
g1020
NtRp1781
(dp1782
g1038
S'0'
sg1039
I350
sbag1018
(g1035
g1020
NtRp1783
(dp1784
g1038
S'0'
sg1039
I351
sbatRp1785
ag1033
((lp1786
g1018
(g1035
g1020
NtRp1787
(dp1788
g1038
S'0'
sg1039
I395
sbag1018
(g1035
g1020
NtRp1789
(dp1790
g1038
S'0'
sg1039
I396
sbag1783
ag1018
(g1035
g1020
NtRp1791
(dp1792
g1038
S'0'
sg1039
I352
sbag1018
(g1035
g1020
NtRp1793
(dp1794
g1038
S'0'
sg1039
I353
sbag1018
(g1035
g1020
NtRp1795
(dp1796
g1038
S'0'
sg1039
I354
sbag1018
(g1035
g1020
NtRp1797
(dp1798
g1038
S'0'
sg1039
I355
sbag1018
(g1035
g1020
NtRp1799
(dp1800
g1038
S'0'
sg1039
I356
sbag1018
(g1035
g1020
NtRp1801
(dp1802
g1038
S'0'
sg1039
I357
sbag1018
(g1035
g1020
NtRp1803
(dp1804
g1038
S'0'
sg1039
I358
sbag1018
(g1035
g1020
NtRp1805
(dp1806
g1038
S'0'
sg1039
I359
sbag1018
(g1035
g1020
NtRp1807
(dp1808
g1038
S'0'
sg1039
I360
sbag1018
(g1035
g1020
NtRp1809
(dp1810
g1038
S'0'
sg1039
I361
sbag1018
(g1035
g1020
NtRp1811
(dp1812
g1038
S'0'
sg1039
I362
sbag1018
(g1035
g1020
NtRp1813
(dp1814
g1038
S'0'
sg1039
I363
sbag1018
(g1035
g1020
NtRp1815
(dp1816
g1038
S'0'
sg1039
I364
sbag1018
(g1035
g1020
NtRp1817
(dp1818
g1038
S'0'
sg1039
I365
sbag1018
(g1035
g1020
NtRp1819
(dp1820
g1038
S'0'
sg1039
I366
sbag1018
(g1035
g1020
NtRp1821
(dp1822
g1038
S'0'
sg1039
I367
sbag1018
(g1035
g1020
NtRp1823
(dp1824
g1038
S'0'
sg1039
I368
sbag1018
(g1035
g1020
NtRp1825
(dp1826
g1038
S'0'
sg1039
I369
sbag1018
(g1035
g1020
NtRp1827
(dp1828
g1038
S'0'
sg1039
I370
sbag1018
(g1035
g1020
NtRp1829
(dp1830
g1038
S'0'
sg1039
I371
sbag1018
(g1035
g1020
NtRp1831
(dp1832
g1038
S'0'
sg1039
I372
sbag1018
(g1035
g1020
NtRp1833
(dp1834
g1038
S'0'
sg1039
I373
sbag1018
(g1035
g1020
NtRp1835
(dp1836
g1038
S'0'
sg1039
I374
sbag1018
(g1035
g1020
NtRp1837
(dp1838
g1038
S'0'
sg1039
I375
sbag1018
(g1035
g1020
NtRp1839
(dp1840
g1038
S'0'
sg1039
I376
sbag1018
(g1035
g1020
NtRp1841
(dp1842
g1038
S'0'
sg1039
I377
sbag1018
(g1035
g1020
NtRp1843
(dp1844
g1038
S'0'
sg1039
I378
sbag1018
(g1035
g1020
NtRp1845
(dp1846
g1038
S'0'
sg1039
I379
sbag1018
(g1035
g1020
NtRp1847
(dp1848
g1038
S'0'
sg1039
I380
sbag1018
(g1035
g1020
NtRp1849
(dp1850
g1038
S'0'
sg1039
I381
sbag1018
(g1035
g1020
NtRp1851
(dp1852
g1038
S'0'
sg1039
I382
sbag1018
(g1035
g1020
NtRp1853
(dp1854
g1038
S'0'
sg1039
I383
sbag1018
(g1035
g1020
NtRp1855
(dp1856
g1038
S'0'
sg1039
I384
sbag1018
(g1035
g1020
NtRp1857
(dp1858
g1038
S'0'
sg1039
I385
sbag1018
(g1035
g1020
NtRp1859
(dp1860
g1038
S'0'
sg1039
I386
sbag1018
(g1035
g1020
NtRp1861
(dp1862
g1038
S'0'
sg1039
I387
sbag1018
(g1035
g1020
NtRp1863
(dp1864
g1038
S'0'
sg1039
I388
sbag1018
(g1035
g1020
NtRp1865
(dp1866
g1038
S'0'
sg1039
I389
sbag1018
(g1035
g1020
NtRp1867
(dp1868
g1038
S'0'
sg1039
I390
sbag1018
(g1035
g1020
NtRp1869
(dp1870
g1038
S'0'
sg1039
I391
sbag1018
(g1035
g1020
NtRp1871
(dp1872
g1038
S'0'
sg1039
I392
sbag1018
(g1035
g1020
NtRp1873
(dp1874
g1038
S'0'
sg1039
I393
sbag1018
(g1035
g1020
NtRp1875
(dp1876
g1038
S'0'
sg1039
I394
sbag1018
(g1035
g1020
NtRp1877
(dp1878
g1038
S'1'
sg1039
I12
sbag1018
(g1035
g1020
NtRp1879
(dp1880
g1038
S'1'
sg1039
I13
sbag1018
(g1035
g1020
NtRp1881
(dp1882
g1038
S'0'
sg1039
I397
sbag1018
(g1035
g1020
NtRp1883
(dp1884
g1038
S'0'
sg1039
I398
sbag1018
(g1035
g1020
NtRp1885
(dp1886
g1038
S'0'
sg1039
I399
sbag1018
(g1035
g1020
NtRp1887
(dp1888
g1038
S'0'
sg1039
I400
sbag1018
(g1035
g1020
NtRp1889
(dp1890
g1038
S'0'
sg1039
I401
sbag1018
(g1035
g1020
NtRp1891
(dp1892
g1038
S'0'
sg1039
I402
sbag1018
(g1035
g1020
NtRp1893
(dp1894
g1038
S'0'
sg1039
I403
sbag1018
(g1035
g1020
NtRp1895
(dp1896
g1038
S'0'
sg1039
I404
sbag1018
(g1035
g1020
NtRp1897
(dp1898
g1038
S'0'
sg1039
I405
sbag1018
(g1035
g1020
NtRp1899
(dp1900
g1038
S'0'
sg1039
I406
sbag1018
(g1035
g1020
NtRp1901
(dp1902
g1038
S'0'
sg1039
I407
sbag1018
(g1035
g1020
NtRp1903
(dp1904
g1038
S'0'
sg1039
I408
sbag1018
(g1035
g1020
NtRp1905
(dp1906
g1038
S'0'
sg1039
I409
sbag1018
(g1035
g1020
NtRp1907
(dp1908
g1038
S'0'
sg1039
I410
sbag1018
(g1035
g1020
NtRp1909
(dp1910
g1038
S'0'
sg1039
I411
sbag1018
(g1035
g1020
NtRp1911
(dp1912
g1038
S'0'
sg1039
I412
sbag1018
(g1035
g1020
NtRp1913
(dp1914
g1038
S'0'
sg1039
I413
sbag1018
(g1035
g1020
NtRp1915
(dp1916
g1038
S'0'
sg1039
I414
sbag1018
(g1035
g1020
NtRp1917
(dp1918
g1038
S'0'
sg1039
I415
sbag1018
(g1035
g1020
NtRp1919
(dp1920
g1038
S'0'
sg1039
I416
sbag1018
(g1035
g1020
NtRp1921
(dp1922
g1038
S'0'
sg1039
I417
sbag1018
(g1035
g1020
NtRp1923
(dp1924
g1038
S'0'
sg1039
I418
sbag1018
(g1035
g1020
NtRp1925
(dp1926
g1038
S'0'
sg1039
I419
sbag1018
(g1035
g1020
NtRp1927
(dp1928
g1038
S'0'
sg1039
I420
sbag1018
(g1035
g1020
NtRp1929
(dp1930
g1038
S'0'
sg1039
I421
sbag1018
(g1035
g1020
NtRp1931
(dp1932
g1038
S'0'
sg1039
I422
sbag1018
(g1035
g1020
NtRp1933
(dp1934
g1038
S'0'
sg1039
I423
sbag1018
(g1035
g1020
NtRp1935
(dp1936
g1038
S'0'
sg1039
I424
sbag1018
(g1035
g1020
NtRp1937
(dp1938
g1038
S'0'
sg1039
I425
sbag1018
(g1035
g1020
NtRp1939
(dp1940
g1038
S'0'
sg1039
I426
sbag1018
(g1035
g1020
NtRp1941
(dp1942
g1038
S'0'
sg1039
I427
sbag1018
(g1035
g1020
NtRp1943
(dp1944
g1038
S'0'
sg1039
I428
sbag1018
(g1035
g1020
NtRp1945
(dp1946
g1038
S'0'
sg1039
I429
sbag1018
(g1035
g1020
NtRp1947
(dp1948
g1038
S'0'
sg1039
I430
sbag1018
(g1035
g1020
NtRp1949
(dp1950
g1038
S'0'
sg1039
I431
sbag1018
(g1035
g1020
NtRp1951
(dp1952
g1038
S'0'
sg1039
I432
sbag1018
(g1035
g1020
NtRp1953
(dp1954
g1038
S'0'
sg1039
I433
sbag1018
(g1035
g1020
NtRp1955
(dp1956
g1038
S'0'
sg1039
I434
sbag1018
(g1035
g1020
NtRp1957
(dp1958
g1038
S'0'
sg1039
I435
sbag1018
(g1035
g1020
NtRp1959
(dp1960
g1038
S'0'
sg1039
I436
sbag1018
(g1035
g1020
NtRp1961
(dp1962
g1038
S'0'
sg1039
I437
sbag1018
(g1035
g1020
NtRp1963
(dp1964
g1038
S'0'
sg1039
I438
sbag1018
(g1035
g1020
NtRp1965
(dp1966
g1038
S'0'
sg1039
I439
sbag1018
(g1035
g1020
NtRp1967
(dp1968
g1038
S'0'
sg1039
I440
sbag1018
(g1035
g1020
NtRp1969
(dp1970
g1038
S'0'
sg1039
I441
sbag1018
(g1035
g1020
NtRp1971
(dp1972
g1038
S'0'
sg1039
I442
sbag1018
(g1035
g1020
NtRp1973
(dp1974
g1038
S'0'
sg1039
I443
sbag1018
(g1035
g1020
NtRp1975
(dp1976
g1038
S'0'
sg1039
I444
sbag1018
(g1035
g1020
NtRp1977
(dp1978
g1038
S'0'
sg1039
I445
sbag1018
(g1035
g1020
NtRp1979
(dp1980
g1038
S'0'
sg1039
I446
sbag1018
(g1035
g1020
NtRp1981
(dp1982
g1038
S'0'
sg1039
I447
sbatRp1983
ag1033
((lp1984
g1981
ag1879
atRp1985
ag1033
((lp1986
g1981
ag1879
atRp1987
ag1033
((lp1988
g1981
ag1879
atRp1989
ag1033
((lp1990
g1981
ag1879
atRp1991
ag1033
((lp1992
g1981
ag1879
atRp1993
ag1033
((ltRp1994
ag1033
((ltRp1995
ag1033
((ltRp1996
ag1033
((ltRp1997
ag1033
((ltRp1998
ag1033
((ltRp1999
ag1033
((ltRp2000
ag1033
((ltRp2001
ag1033
((ltRp2002
ag1033
((ltRp2003
ag1033
((ltRp2004
ag1033
((ltRp2005
ag1033
((ltRp2006
ag1033
((ltRp2007
ag1033
((ltRp2008
ag1033
((ltRp2009
ag1033
((ltRp2010
ag1033
((ltRp2011
ag1033
((ltRp2012
ag1033
((ltRp2013
ag1033
((ltRp2014
ag1033
((ltRp2015
ag1033
((ltRp2016
ag1033
((ltRp2017
ag1033
((ltRp2018
ag1033
((ltRp2019
ag1033
((ltRp2020
ag1033
((ltRp2021
ag1033
((ltRp2022
ag1033
((ltRp2023
ag1033
((ltRp2024
ag1033
((ltRp2025
ag1033
((ltRp2026
ag1033
((ltRp2027
ag1033
((lp2028
g1436
ag1434
ag1018
(g1035
g1020
NtRp2029
(dp2030
g1038
S'1'
sg1039
I3
sbag1018
(g1035
g1020
NtRp2031
(dp2032
g1038
S'0'
sg1039
I3
sbatRp2033
ag1033
((lp2034
g2029
ag2031
atRp2035
ag1033
((lp2036
g2029
ag2031
atRp2037
ag1033
((lp2038
g2029
ag2031
atRp2039
ag1033
((lp2040
g1018
(g1035
g1020
NtRp2041
(dp2042
g1038
S'0'
sg1039
I67
sbag1018
(g1035
g1020
NtRp2043
(dp2044
g1038
S'0'
sg1039
I68
sbag1018
(g1035
g1020
NtRp2045
(dp2046
g1038
S'0'
sg1039
I69
sbag1018
(g1035
g1020
NtRp2047
(dp2048
g1038
S'0'
sg1039
I70
sbag1018
(g1035
g1020
NtRp2049
(dp2050
g1038
S'0'
sg1039
I71
sbag1018
(g1035
g1020
NtRp2051
(dp2052
g1038
S'0'
sg1039
I72
sbag1018
(g1035
g1020
NtRp2053
(dp2054
g1038
S'0'
sg1039
I73
sbag1018
(g1035
g1020
NtRp2055
(dp2056
g1038
S'0'
sg1039
I74
sbag1018
(g1035
g1020
NtRp2057
(dp2058
g1038
S'0'
sg1039
I75
sbag1018
(g1035
g1020
NtRp2059
(dp2060
g1038
S'0'
sg1039
I76
sbag1018
(g1035
g1020
NtRp2061
(dp2062
g1038
S'0'
sg1039
I77
sbag1018
(g1035
g1020
NtRp2063
(dp2064
g1038
S'0'
sg1039
I78
sbag1018
(g1035
g1020
NtRp2065
(dp2066
g1038
S'0'
sg1039
I79
sbag1018
(g1035
g1020
NtRp2067
(dp2068
g1038
S'0'
sg1039
I80
sbag1018
(g1035
g1020
NtRp2069
(dp2070
g1038
S'0'
sg1039
I81
sbag1018
(g1035
g1020
NtRp2071
(dp2072
g1038
S'0'
sg1039
I82
sbag1018
(g1035
g1020
NtRp2073
(dp2074
g1038
S'0'
sg1039
I83
sbag1018
(g1035
g1020
NtRp2075
(dp2076
g1038
S'0'
sg1039
I84
sbag1018
(g1035
g1020
NtRp2077
(dp2078
g1038
S'0'
sg1039
I85
sbag1018
(g1035
g1020
NtRp2079
(dp2080
g1038
S'0'
sg1039
I86
sbag1018
(g1035
g1020
NtRp2081
(dp2082
g1038
S'0'
sg1039
I87
sbag1018
(g1035
g1020
NtRp2083
(dp2084
g1038
S'0'
sg1039
I88
sbag1018
(g1035
g1020
NtRp2085
(dp2086
g1038
S'0'
sg1039
I89
sbag1018
(g1035
g1020
NtRp2087
(dp2088
g1038
S'0'
sg1039
I90
sbag1018
(g1035
g1020
NtRp2089
(dp2090
g1038
S'0'
sg1039
I91
sbag1018
(g1035
g1020
NtRp2091
(dp2092
g1038
S'0'
sg1039
I92
sbag1018
(g1035
g1020
NtRp2093
(dp2094
g1038
S'0'
sg1039
I93
sbag1018
(g1035
g1020
NtRp2095
(dp2096
g1038
S'0'
sg1039
I94
sbag1018
(g1035
g1020
NtRp2097
(dp2098
g1038
S'0'
sg1039
I95
sbag1018
(g1035
g1020
NtRp2099
(dp2100
g1038
S'0'
sg1039
I96
sbag1018
(g1035
g1020
NtRp2101
(dp2102
g1038
S'0'
sg1039
I97
sbag1018
(g1035
g1020
NtRp2103
(dp2104
g1038
S'0'
sg1039
I98
sbag1018
(g1035
g1020
NtRp2105
(dp2106
g1038
S'0'
sg1039
I99
sbag1018
(g1035
g1020
NtRp2107
(dp2108
g1038
S'0'
sg1039
I100
sbag1018
(g1035
g1020
NtRp2109
(dp2110
g1038
S'0'
sg1039
I101
sbag1018
(g1035
g1020
NtRp2111
(dp2112
g1038
S'0'
sg1039
I102
sbag1018
(g1035
g1020
NtRp2113
(dp2114
g1038
S'0'
sg1039
I103
sbag1018
(g1035
g1020
NtRp2115
(dp2116
g1038
S'0'
sg1039
I104
sbag1018
(g1035
g1020
NtRp2117
(dp2118
g1038
S'0'
sg1039
I105
sbag1018
(g1035
g1020
NtRp2119
(dp2120
g1038
S'0'
sg1039
I106
sbag1018
(g1035
g1020
NtRp2121
(dp2122
g1038
S'0'
sg1039
I107
sbag1018
(g1035
g1020
NtRp2123
(dp2124
g1038
S'0'
sg1039
I108
sbag1018
(g1035
g1020
NtRp2125
(dp2126
g1038
S'0'
sg1039
I109
sbag1018
(g1035
g1020
NtRp2127
(dp2128
g1038
S'0'
sg1039
I110
sbag1018
(g1035
g1020
NtRp2129
(dp2130
g1038
S'0'
sg1039
I111
sbag1018
(g1035
g1020
NtRp2131
(dp2132
g1038
S'0'
sg1039
I112
sbag1018
(g1035
g1020
NtRp2133
(dp2134
g1038
S'0'
sg1039
I113
sbag1018
(g1035
g1020
NtRp2135
(dp2136
g1038
S'0'
sg1039
I114
sbag1018
(g1035
g1020
NtRp2137
(dp2138
g1038
S'0'
sg1039
I115
sbag1018
(g1035
g1020
NtRp2139
(dp2140
g1038
S'0'
sg1039
I116
sbag1018
(g1035
g1020
NtRp2141
(dp2142
g1038
S'0'
sg1039
I117
sbag1018
(g1035
g1020
NtRp2143
(dp2144
g1038
S'0'
sg1039
I118
sbag1018
(g1035
g1020
NtRp2145
(dp2146
g1038
S'0'
sg1039
I119
sbag1018
(g1035
g1020
NtRp2147
(dp2148
g1038
S'0'
sg1039
I120
sbag1018
(g1035
g1020
NtRp2149
(dp2150
g1038
S'0'
sg1039
I121
sbag1018
(g1035
g1020
NtRp2151
(dp2152
g1038
S'0'
sg1039
I122
sbag1018
(g1035
g1020
NtRp2153
(dp2154
g1038
S'0'
sg1039
I123
sbag1018
(g1035
g1020
NtRp2155
(dp2156
g1038
S'0'
sg1039
I124
sbag1018
(g1035
g1020
NtRp2157
(dp2158
g1038
S'0'
sg1039
I125
sbag1018
(g1035
g1020
NtRp2159
(dp2160
g1038
S'0'
sg1039
I126
sbag1018
(g1035
g1020
NtRp2161
(dp2162
g1038
S'0'
sg1039
I127
sbag1018
(g1035
g1020
NtRp2163
(dp2164
g1038
S'0'
sg1039
I128
sbag1018
(g1035
g1020
NtRp2165
(dp2166
g1038
S'0'
sg1039
I129
sbag1018
(g1035
g1020
NtRp2167
(dp2168
g1038
S'0'
sg1039
I130
sbag1018
(g1035
g1020
NtRp2169
(dp2170
g1038
S'0'
sg1039
I131
sbag1018
(g1035
g1020
NtRp2171
(dp2172
g1038
S'0'
sg1039
I132
sbag1018
(g1035
g1020
NtRp2173
(dp2174
g1038
S'0'
sg1039
I133
sbag1018
(g1035
g1020
NtRp2175
(dp2176
g1038
S'0'
sg1039
I134
sbag1018
(g1035
g1020
NtRp2177
(dp2178
g1038
S'0'
sg1039
I135
sbag1018
(g1035
g1020
NtRp2179
(dp2180
g1038
S'0'
sg1039
I136
sbag1018
(g1035
g1020
NtRp2181
(dp2182
g1038
S'0'
sg1039
I137
sbag1018
(g1035
g1020
NtRp2183
(dp2184
g1038
S'0'
sg1039
I138
sbag1018
(g1035
g1020
NtRp2185
(dp2186
g1038
S'0'
sg1039
I139
sbag1018
(g1035
g1020
NtRp2187
(dp2188
g1038
S'0'
sg1039
I140
sbag1018
(g1035
g1020
NtRp2189
(dp2190
g1038
S'0'
sg1039
I141
sbag1018
(g1035
g1020
NtRp2191
(dp2192
g1038
S'0'
sg1039
I142
sbag1018
(g1035
g1020
NtRp2193
(dp2194
g1038
S'0'
sg1039
I143
sbag1018
(g1035
g1020
NtRp2195
(dp2196
g1038
S'0'
sg1039
I144
sbag1018
(g1035
g1020
NtRp2197
(dp2198
g1038
S'0'
sg1039
I145
sbag1018
(g1035
g1020
NtRp2199
(dp2200
g1038
S'0'
sg1039
I146
sbag1018
(g1035
g1020
NtRp2201
(dp2202
g1038
S'0'
sg1039
I147
sbag1018
(g1035
g1020
NtRp2203
(dp2204
g1038
S'0'
sg1039
I148
sbag1018
(g1035
g1020
NtRp2205
(dp2206
g1038
S'0'
sg1039
I149
sbag1018
(g1035
g1020
NtRp2207
(dp2208
g1038
S'0'
sg1039
I150
sbag1018
(g1035
g1020
NtRp2209
(dp2210
g1038
S'0'
sg1039
I151
sbag1018
(g1035
g1020
NtRp2211
(dp2212
g1038
S'0'
sg1039
I152
sbag1018
(g1035
g1020
NtRp2213
(dp2214
g1038
S'0'
sg1039
I153
sbag1018
(g1035
g1020
NtRp2215
(dp2216
g1038
S'0'
sg1039
I154
sbag1018
(g1035
g1020
NtRp2217
(dp2218
g1038
S'0'
sg1039
I155
sbag1018
(g1035
g1020
NtRp2219
(dp2220
g1038
S'0'
sg1039
I156
sbag1018
(g1035
g1020
NtRp2221
(dp2222
g1038
S'0'
sg1039
I157
sbag1018
(g1035
g1020
NtRp2223
(dp2224
g1038
S'0'
sg1039
I158
sbag1018
(g1035
g1020
NtRp2225
(dp2226
g1038
S'0'
sg1039
I159
sbag1018
(g1035
g1020
NtRp2227
(dp2228
g1038
S'0'
sg1039
I160
sbag1018
(g1035
g1020
NtRp2229
(dp2230
g1038
S'0'
sg1039
I161
sbag1018
(g1035
g1020
NtRp2231
(dp2232
g1038
S'0'
sg1039
I162
sbag1018
(g1035
g1020
NtRp2233
(dp2234
g1038
S'0'
sg1039
I163
sbag1018
(g1035
g1020
NtRp2235
(dp2236
g1038
S'0'
sg1039
I164
sbag1018
(g1035
g1020
NtRp2237
(dp2238
g1038
S'0'
sg1039
I165
sbag1018
(g1035
g1020
NtRp2239
(dp2240
g1038
S'0'
sg1039
I166
sbag1018
(g1035
g1020
NtRp2241
(dp2242
g1038
S'0'
sg1039
I167
sbag1018
(g1035
g1020
NtRp2243
(dp2244
g1038
S'0'
sg1039
I168
sbag1018
(g1035
g1020
NtRp2245
(dp2246
g1038
S'0'
sg1039
I169
sbag1018
(g1035
g1020
NtRp2247
(dp2248
g1038
S'0'
sg1039
I170
sbag1018
(g1035
g1020
NtRp2249
(dp2250
g1038
S'0'
sg1039
I171
sbag1018
(g1035
g1020
NtRp2251
(dp2252
g1038
S'0'
sg1039
I172
sbag1018
(g1035
g1020
NtRp2253
(dp2254
g1038
S'0'
sg1039
I173
sbag1018
(g1035
g1020
NtRp2255
(dp2256
g1038
S'0'
sg1039
I174
sbag1018
(g1035
g1020
NtRp2257
(dp2258
g1038
S'0'
sg1039
I175
sbag1018
(g1035
g1020
NtRp2259
(dp2260
g1038
S'0'
sg1039
I176
sbag1018
(g1035
g1020
NtRp2261
(dp2262
g1038
S'0'
sg1039
I177
sbag1018
(g1035
g1020
NtRp2263
(dp2264
g1038
S'0'
sg1039
I178
sbag1018
(g1035
g1020
NtRp2265
(dp2266
g1038
S'0'
sg1039
I179
sbag1018
(g1035
g1020
NtRp2267
(dp2268
g1038
S'0'
sg1039
I180
sbag1018
(g1035
g1020
NtRp2269
(dp2270
g1038
S'0'
sg1039
I181
sbag1475
atRp2271
ag1033
((ltRp2272
ag1033
((lp2273
g1981
ag1877
ag1879
atRp2274
ag1033
((lp2275
g1981
ag1879
atRp2276
ag1033
((lp2277
g1981
ag1879
atRp2278
ag1033
((lp2279
g1981
ag1879
atRp2280
ag1033
((lp2281
g1981
ag1879
atRp2282
ag1033
((lp2283
g1981
ag1879
atRp2284
ag1033
((ltRp2285
ag1033
((ltRp2286
ag1033
((ltRp2287
ag1033
((ltRp2288
ag1033
((ltRp2289
ag1033
((ltRp2290
ag1033
((ltRp2291
ag1033
((ltRp2292
ag1033
((ltRp2293
ag1033
((ltRp2294
ag1033
((ltRp2295
ag1033
((ltRp2296
ag1033
((ltRp2297
ag1033
((ltRp2298
ag1033
((ltRp2299
ag1033
((ltRp2300
ag1033
((ltRp2301
ag1033
((ltRp2302
ag1033
((ltRp2303
ag1033
((ltRp2304
ag1033
((ltRp2305
ag1033
((ltRp2306
ag1033
((ltRp2307
ag1033
((ltRp2308
ag1033
((ltRp2309
ag1033
((ltRp2310
ag1033
((ltRp2311
ag1033
((ltRp2312
ag1033
((ltRp2313
ag1033
((ltRp2314
ag1033
((ltRp2315
ag1033
((ltRp2316
ag1033
((ltRp2317
ag1033
((ltRp2318
ag1033
((lp2319
g2029
ag2031
atRp2320
ag1033
((lp2321
g2029
ag2031
atRp2322
ag1033
((lp2323
g2029
ag2031
atRp2324
ag1033
((lp2325
g1018
(g1035
g1020
NtRp2326
(dp2327
g1038
S'0'
sg1039
I11
sbag2029
ag2031
ag1018
(g1035
g1020
NtRp2328
(dp2329
g1038
S'0'
sg1039
I4
sbag1018
(g1035
g1020
NtRp2330
(dp2331
g1038
S'0'
sg1039
I5
sbag1018
(g1035
g1020
NtRp2332
(dp2333
g1038
S'0'
sg1039
I6
sbag1018
(g1035
g1020
NtRp2334
(dp2335
g1038
S'0'
sg1039
I7
sbag1018
(g1035
g1020
NtRp2336
(dp2337
g1038
S'1'
sg1039
I4
sbag1018
(g1035
g1020
NtRp2338
(dp2339
g1038
S'0'
sg1039
I9
sbag1018
(g1035
g1020
NtRp2340
(dp2341
g1038
S'0'
sg1039
I10
sbag1018
(g1035
g1020
NtRp2342
(dp2343
g1038
S'0'
sg1039
I8
sbatRp2344
ag1033
((lp2345
g2336
ag1018
(g1035
g1020
NtRp2346
(dp2347
g1038
S'1'
sg1039
I5
sbag2326
ag1018
(g1035
g1020
NtRp2348
(dp2349
g1038
S'0'
sg1039
I12
sbag1018
(g1035
g1020
NtRp2350
(dp2351
g1038
S'0'
sg1039
I13
sbag1018
(g1035
g1020
NtRp2352
(dp2353
g1038
S'0'
sg1039
I14
sbag1018
(g1035
g1020
NtRp2354
(dp2355
g1038
S'0'
sg1039
I15
sbag1018
(g1035
g1020
NtRp2356
(dp2357
g1038
S'0'
sg1039
I16
sbag1018
(g1035
g1020
NtRp2358
(dp2359
g1038
S'0'
sg1039
I17
sbag1018
(g1035
g1020
NtRp2360
(dp2361
g1038
S'0'
sg1039
I18
sbag1018
(g1035
g1020
NtRp2362
(dp2363
g1038
S'0'
sg1039
I19
sbag1018
(g1035
g1020
NtRp2364
(dp2365
g1038
S'0'
sg1039
I20
sbag1018
(g1035
g1020
NtRp2366
(dp2367
g1038
S'0'
sg1039
I21
sbag1018
(g1035
g1020
NtRp2368
(dp2369
g1038
S'0'
sg1039
I22
sbag1018
(g1035
g1020
NtRp2370
(dp2371
g1038
S'0'
sg1039
I23
sbag1018
(g1035
g1020
NtRp2372
(dp2373
g1038
S'0'
sg1039
I24
sbag1018
(g1035
g1020
NtRp2374
(dp2375
g1038
S'0'
sg1039
I25
sbag1018
(g1035
g1020
NtRp2376
(dp2377
g1038
S'0'
sg1039
I26
sbag1018
(g1035
g1020
NtRp2378
(dp2379
g1038
S'0'
sg1039
I27
sbag1018
(g1035
g1020
NtRp2380
(dp2381
g1038
S'0'
sg1039
I28
sbag1018
(g1035
g1020
NtRp2382
(dp2383
g1038
S'0'
sg1039
I29
sbag1018
(g1035
g1020
NtRp2384
(dp2385
g1038
S'0'
sg1039
I30
sbag1018
(g1035
g1020
NtRp2386
(dp2387
g1038
S'0'
sg1039
I31
sbag1018
(g1035
g1020
NtRp2388
(dp2389
g1038
S'0'
sg1039
I32
sbag1018
(g1035
g1020
NtRp2390
(dp2391
g1038
S'0'
sg1039
I33
sbag1018
(g1035
g1020
NtRp2392
(dp2393
g1038
S'0'
sg1039
I34
sbag1018
(g1035
g1020
NtRp2394
(dp2395
g1038
S'0'
sg1039
I35
sbag1018
(g1035
g1020
NtRp2396
(dp2397
g1038
S'0'
sg1039
I36
sbag1018
(g1035
g1020
NtRp2398
(dp2399
g1038
S'0'
sg1039
I37
sbag1018
(g1035
g1020
NtRp2400
(dp2401
g1038
S'0'
sg1039
I38
sbag1018
(g1035
g1020
NtRp2402
(dp2403
g1038
S'0'
sg1039
I39
sbag1018
(g1035
g1020
NtRp2404
(dp2405
g1038
S'0'
sg1039
I40
sbag1018
(g1035
g1020
NtRp2406
(dp2407
g1038
S'0'
sg1039
I41
sbag1018
(g1035
g1020
NtRp2408
(dp2409
g1038
S'0'
sg1039
I42
sbag1018
(g1035
g1020
NtRp2410
(dp2411
g1038
S'0'
sg1039
I43
sbag1018
(g1035
g1020
NtRp2412
(dp2413
g1038
S'0'
sg1039
I44
sbag1018
(g1035
g1020
NtRp2414
(dp2415
g1038
S'0'
sg1039
I45
sbag1018
(g1035
g1020
NtRp2416
(dp2417
g1038
S'0'
sg1039
I46
sbag1018
(g1035
g1020
NtRp2418
(dp2419
g1038
S'0'
sg1039
I47
sbag1018
(g1035
g1020
NtRp2420
(dp2421
g1038
S'0'
sg1039
I48
sbag1018
(g1035
g1020
NtRp2422
(dp2423
g1038
S'0'
sg1039
I49
sbag1018
(g1035
g1020
NtRp2424
(dp2425
g1038
S'0'
sg1039
I50
sbag1018
(g1035
g1020
NtRp2426
(dp2427
g1038
S'0'
sg1039
I51
sbag1018
(g1035
g1020
NtRp2428
(dp2429
g1038
S'0'
sg1039
I52
sbag1018
(g1035
g1020
NtRp2430
(dp2431
g1038
S'0'
sg1039
I53
sbag1018
(g1035
g1020
NtRp2432
(dp2433
g1038
S'0'
sg1039
I54
sbag1018
(g1035
g1020
NtRp2434
(dp2435
g1038
S'0'
sg1039
I55
sbag1018
(g1035
g1020
NtRp2436
(dp2437
g1038
S'0'
sg1039
I56
sbag1018
(g1035
g1020
NtRp2438
(dp2439
g1038
S'0'
sg1039
I57
sbag1018
(g1035
g1020
NtRp2440
(dp2441
g1038
S'0'
sg1039
I58
sbag1018
(g1035
g1020
NtRp2442
(dp2443
g1038
S'0'
sg1039
I59
sbag1018
(g1035
g1020
NtRp2444
(dp2445
g1038
S'0'
sg1039
I60
sbag1018
(g1035
g1020
NtRp2446
(dp2447
g1038
S'0'
sg1039
I61
sbag1018
(g1035
g1020
NtRp2448
(dp2449
g1038
S'0'
sg1039
I62
sbag1018
(g1035
g1020
NtRp2450
(dp2451
g1038
S'0'
sg1039
I63
sbag1018
(g1035
g1020
NtRp2452
(dp2453
g1038
S'0'
sg1039
I64
sbag1018
(g1035
g1020
NtRp2454
(dp2455
g1038
S'0'
sg1039
I65
sbag1018
(g1035
g1020
NtRp2456
(dp2457
g1038
S'0'
sg1039
I66
sbag2041
atRp2458
ag1033
((ltRp2459
ag1033
((lp2460
g1981
ag1018
(g1035
g1020
NtRp2461
(dp2462
g1038
S'1'
sg1039
I11
sbag1877
ag1879
atRp2463
ag1033
((lp2464
g1981
ag1879
atRp2465
ag1033
((lp2466
g1981
ag1879
atRp2467
ag1033
((lp2468
g1981
ag1879
atRp2469
ag1033
((lp2470
g1981
ag1879
atRp2471
ag1033
((lp2472
g1981
ag1018
(g1035
g1020
NtRp2473
(dp2474
g1038
S'0'
sg1039
I448
sbag1879
ag1018
(g1035
g1020
NtRp2475
(dp2476
g1038
S'1'
sg1039
I14
sbatRp2477
ag1033
((lp2478
g2473
ag2475
atRp2479
ag1033
((lp2480
g2473
ag2475
atRp2481
ag1033
((lp2482
g2473
ag2475
atRp2483
ag1033
((lp2484
g2473
ag2475
atRp2485
ag1033
((lp2486
g2473
ag2475
atRp2487
ag1033
((ltRp2488
ag1033
((ltRp2489
ag1033
((ltRp2490
ag1033
((ltRp2491
ag1033
((ltRp2492
ag1033
((ltRp2493
ag1033
((ltRp2494
ag1033
((ltRp2495
ag1033
((ltRp2496
ag1033
((ltRp2497
ag1033
((ltRp2498
ag1033
((ltRp2499
ag1033
((ltRp2500
ag1033
((ltRp2501
ag1033
((ltRp2502
ag1033
((ltRp2503
ag1033
((ltRp2504
ag1033
((ltRp2505
ag1033
((ltRp2506
ag1033
((ltRp2507
ag1033
((ltRp2508
ag1033
((ltRp2509
ag1033
((ltRp2510
ag1033
((ltRp2511
ag1033
((ltRp2512
ag1033
((ltRp2513
ag1033
((ltRp2514
ag1033
((ltRp2515
ag1033
((ltRp2516
ag1033
((ltRp2517
ag1033
((ltRp2518
ag1033
((ltRp2519
ag1033
((ltRp2520
ag1033
((lp2521
g1018
(g1035
g1020
NtRp2522
(dp2523
g1038
S'1'
sg1039
I8
sbag2346
ag1018
(g1035
g1020
NtRp2524
(dp2525
g1038
S'1'
sg1039
I6
sbag1018
(g1035
g1020
NtRp2526
(dp2527
g1038
S'1'
sg1039
I7
sbatRp2528
ag1033
((lp2529
g2522
ag1018
(g1035
g1020
NtRp2530
(dp2531
g1038
S'1'
sg1039
I9
sbag1018
(g1035
g1020
NtRp2532
(dp2533
g1038
S'1'
sg1039
I10
sbatRp2534
ag1033
((lp2535
g2532
ag2461
atRp2536
ag1033
((ltRp2537
ag1033
((ltRp2538
ag1033
((ltRp2539
ag1033
((ltRp2540
ag1033
((lp2541
g2473
ag2475
atRp2542
ag1033
((lp2543
g2473
ag2475
atRp2544
ag1033
((lp2545
g2473
ag2475
atRp2546
ag1033
((lp2547
g2473
ag2475
atRp2548
ag1033
((lp2549
g2473
ag2475
atRp2550
ag1033
((lp2551
g2473
ag1018
(g1035
g1020
NtRp2552
(dp2553
g1038
S'0'
sg1039
I449
sbag2475
ag1018
(g1035
g1020
NtRp2554
(dp2555
g1038
S'1'
sg1039
I15
sbatRp2556
ag1033
((lp2557
g2552
ag2554
atRp2558
ag1033
((ltRp2559
ag1033
((ltRp2560
ag1033
((ltRp2561
ag1033
((ltRp2562
ag1033
((ltRp2563
ag1033
((ltRp2564
ag1033
((ltRp2565
ag1033
((ltRp2566
ag1033
((ltRp2567
ag1033
((ltRp2568
ag1033
((ltRp2569
ag1033
((ltRp2570
ag1033
((ltRp2571
ag1033
((ltRp2572
ag1033
((ltRp2573
ag1033
((ltRp2574
ag1033
((ltRp2575
ag1033
((ltRp2576
ag1033
((ltRp2577
ag1033
((ltRp2578
ag1033
((ltRp2579
ag1033
((ltRp2580
ag1033
((ltRp2581
ag1033
((ltRp2582
ag1033
((ltRp2583
ag1033
((ltRp2584
ag1033
((ltRp2585
ag1033
((ltRp2586
ag1033
((ltRp2587
ag1033
((ltRp2588
ag1033
((ltRp2589
ag1033
((ltRp2590
ag1033
((ltRp2591
ag1033
((ltRp2592
ag1033
((ltRp2593
ag1033
((ltRp2594
ag1033
((ltRp2595
ag1033
((ltRp2596
ag1033
((ltRp2597
ag1033
((ltRp2598
ag1033
((ltRp2599
ag1033
((ltRp2600
ag1033
((ltRp2601
ag1033
((ltRp2602
ag1033
((lp2603
g2552
ag2554
atRp2604
ag1033
((lp2605
g1018
(g1035
g1020
NtRp2606
(dp2607
g1038
S'1'
sg1039
I16
sbag2552
ag1018
(g1035
g1020
NtRp2608
(dp2609
g1038
S'0'
sg1039
I450
sbag2554
atRp2610
ag1033
((lp2611
g2606
ag1018
(g1035
g1020
NtRp2612
(dp2613
g1038
S'1'
sg1039
I17
sbag1018
(g1035
g1020
NtRp2614
(dp2615
g1038
S'1'
sg1039
I18
sbag2608
ag1018
(g1035
g1020
NtRp2616
(dp2617
g1038
S'0'
sg1039
I451
sbag1018
(g1035
g1020
NtRp2618
(dp2619
g1038
S'0'
sg1039
I452
sbatRp2620
ag1033
((lp2621
g2614
ag1018
(g1035
g1020
NtRp2622
(dp2623
g1038
S'1'
sg1039
I19
sbag1018
(g1035
g1020
NtRp2624
(dp2625
g1038
S'1'
sg1039
I20
sbag2618
ag1018
(g1035
g1020
NtRp2626
(dp2627
g1038
S'0'
sg1039
I453
sbag1018
(g1035
g1020
NtRp2628
(dp2629
g1038
S'0'
sg1039
I454
sbatRp2630
ag1033
((lp2631
g2624
ag2628
atRp2632
ag1033
((lp2633
g2624
ag2628
atRp2634
ag1033
((lp2635
g2624
ag2628
atRp2636
ag1033
((ltRp2637
ag1033
((ltRp2638
ag1033
((ltRp2639
ag1033
((ltRp2640
ag1033
((ltRp2641
ag1033
((ltRp2642
ag1033
((ltRp2643
ag1033
((ltRp2644
ag1033
((ltRp2645
ag1033
((ltRp2646
ag1033
((ltRp2647
ag1033
((ltRp2648
ag1033
((ltRp2649
ag1033
((ltRp2650
ag1033
((ltRp2651
ag1033
((ltRp2652
ag1033
((ltRp2653
ag1033
((ltRp2654
ag1033
((ltRp2655
ag1033
((ltRp2656
ag1033
((ltRp2657
ag1033
((ltRp2658
ag1033
((ltRp2659
ag1033
((ltRp2660
ag1033
((ltRp2661
ag1033
((ltRp2662
ag1033
((ltRp2663
ag1033
((ltRp2664
ag1033
((ltRp2665
ag1033
((ltRp2666
ag1033
((ltRp2667
ag1033
((ltRp2668
ag1033
((ltRp2669
ag1033
((ltRp2670
ag1033
((ltRp2671
ag1033
((ltRp2672
ag1033
((ltRp2673
ag1033
((ltRp2674
ag1033
((ltRp2675
ag1033
((ltRp2676
ag1033
((ltRp2677
ag1033
((ltRp2678
ag1033
((lp2679
g2624
ag2628
atRp2680
ag1033
((lp2681
g2624
ag2628
atRp2682
ag1033
((lp2683
g2624
ag2628
atRp2684
ag1033
((lp2685
g1018
(g1035
g1020
NtRp2686
(dp2687
g1038
S'0'
sg1039
I455
sbag2624
ag1018
(g1035
g1020
NtRp2688
(dp2689
g1038
S'1'
sg1039
I21
sbag2628
atRp2690
ag1033
((lp2691
g2686
ag2688
atRp2692
ag1033
((ltRp2693
ag1033
((ltRp2694
ag1033
((ltRp2695
ag1033
((ltRp2696
ag1033
((ltRp2697
ag1033
((ltRp2698
ag1033
((ltRp2699
ag1033
((ltRp2700
ag1033
((ltRp2701
ag1033
((ltRp2702
ag1033
((ltRp2703
ag1033
((ltRp2704
ag1033
((ltRp2705
ag1033
((ltRp2706
ag1033
((ltRp2707
ag1033
((ltRp2708
ag1033
((ltRp2709
ag1033
((ltRp2710
ag1033
((ltRp2711
ag1033
((ltRp2712
ag1033
((ltRp2713
ag1033
((ltRp2714
ag1033
((ltRp2715
ag1033
((ltRp2716
ag1033
((ltRp2717
ag1033
((ltRp2718
ag1033
((ltRp2719
ag1033
((ltRp2720
ag1033
((ltRp2721
ag1033
((ltRp2722
ag1033
((ltRp2723
ag1033
((ltRp2724
ag1033
((ltRp2725
ag1033
((ltRp2726
ag1033
((ltRp2727
ag1033
((ltRp2728
ag1033
((ltRp2729
ag1033
((ltRp2730
ag1033
((ltRp2731
ag1033
((ltRp2732
ag1033
((ltRp2733
ag1033
((ltRp2734
ag1033
((ltRp2735
ag1033
((ltRp2736
ag1033
((lp2737
g2686
ag1018
(g1035
g1020
NtRp2738
(dp2739
g1038
S'0'
sg1039
I456
sbag2688
ag1018
(g1035
g1020
NtRp2740
(dp2741
g1038
S'1'
sg1039
I22
sbatRp2742
ag1033
((lp2743
g2686
ag2738
ag2688
ag2740
atRp2744
ag1033
((ltRp2745
ag1033
((ltRp2746
ag1033
((ltRp2747
ag1033
((ltRp2748
ag1033
((ltRp2749
ag1033
((ltRp2750
ag1033
((ltRp2751
ag1033
((ltRp2752
ag1033
((ltRp2753
ag1033
((ltRp2754
ag1033
((ltRp2755
ag1033
((ltRp2756
ag1033
((ltRp2757
ag1033
((ltRp2758
ag1033
((ltRp2759
ag1033
((ltRp2760
ag1033
((ltRp2761
ag1033
((ltRp2762
ag1033
((ltRp2763
ag1033
((ltRp2764
ag1033
((ltRp2765
ag1033
((ltRp2766
ag1033
((ltRp2767
ag1033
((ltRp2768
ag1033
((ltRp2769
ag1033
((ltRp2770
ag1033
((ltRp2771
ag1033
((ltRp2772
ag1033
((ltRp2773
ag1033
((ltRp2774
ag1033
((ltRp2775
ag1033
((ltRp2776
ag1033
((ltRp2777
ag1033
((ltRp2778
ag1033
((ltRp2779
ag1033
((ltRp2780
ag1033
((ltRp2781
ag1033
((ltRp2782
ag1033
((ltRp2783
ag1033
((ltRp2784
ag1033
((ltRp2785
ag1033
((ltRp2786
ag1033
((ltRp2787
ag1033
((ltRp2788
ag1033
((lp2789
g2738
ag2740
atRp2790
ag1033
((lp2791
g2738
ag2740
atRp2792
ag1033
((ltRp2793
ag1033
((ltRp2794
ag1033
((ltRp2795
ag1033
((ltRp2796
ag1033
((ltRp2797
ag1033
((ltRp2798
ag1033
((ltRp2799
ag1033
((ltRp2800
ag1033
((ltRp2801
ag1033
((ltRp2802
ag1033
((ltRp2803
ag1033
((ltRp2804
ag1033
((ltRp2805
ag1033
((ltRp2806
ag1033
((ltRp2807
ag1033
((ltRp2808
ag1033
((ltRp2809
ag1033
((ltRp2810
ag1033
((ltRp2811
ag1033
((ltRp2812
ag1033
((ltRp2813
ag1033
((ltRp2814
ag1033
((ltRp2815
ag1033
((ltRp2816
ag1033
((ltRp2817
ag1033
((ltRp2818
ag1033
((ltRp2819
ag1033
((ltRp2820
ag1033
((ltRp2821
ag1033
((ltRp2822
ag1033
((ltRp2823
ag1033
((ltRp2824
ag1033
((ltRp2825
ag1033
((ltRp2826
ag1033
((ltRp2827
ag1033
((ltRp2828
ag1033
((ltRp2829
ag1033
((ltRp2830
ag1033
((ltRp2831
ag1033
((ltRp2832
ag1033
((ltRp2833
ag1033
((ltRp2834
ag1033
((ltRp2835
ag1033
((ltRp2836
ag1033
((lp2837
g2738
ag2740
atRp2838
ag1033
((lp2839
g2738
ag2740
atRp2840
ag1033
((ltRp2841
ag1033
((ltRp2842
ag1033
((ltRp2843
ag1033
((ltRp2844
ag1033
((ltRp2845
ag1033
((ltRp2846
ag1033
((ltRp2847
ag1033
((ltRp2848
ag1033
((ltRp2849
ag1033
((ltRp2850
ag1033
((ltRp2851
ag1033
((ltRp2852
ag1033
((ltRp2853
ag1033
((ltRp2854
ag1033
((ltRp2855
ag1033
((ltRp2856
ag1033
((ltRp2857
ag1033
((ltRp2858
ag1033
((ltRp2859
ag1033
((ltRp2860
ag1033
((ltRp2861
ag1033
((ltRp2862
ag1033
((ltRp2863
ag1033
((ltRp2864
ag1033
((ltRp2865
ag1033
((ltRp2866
ag1033
((ltRp2867
ag1033
((ltRp2868
ag1033
((ltRp2869
ag1033
((ltRp2870
ag1033
((ltRp2871
ag1033
((ltRp2872
ag1033
((ltRp2873
ag1033
((ltRp2874
ag1033
((ltRp2875
ag1033
((ltRp2876
ag1033
((ltRp2877
ag1033
((ltRp2878
ag1033
((ltRp2879
ag1033
((ltRp2880
ag1033
((ltRp2881
ag1033
((ltRp2882
ag1033
((ltRp2883
ag1033
((ltRp2884
ag1033
((lp2885
g2738
ag1018
(g1035
g1020
NtRp2886
(dp2887
g1038
S'0'
sg1039
I457
sbag2740
ag1018
(g1035
g1020
NtRp2888
(dp2889
g1038
S'1'
sg1039
I23
sbatRp2890
ag1033
((lp2891
g2738
ag2740
atRp2892
ag1033
((ltRp2893
ag1033
((ltRp2894
ag1033
((ltRp2895
ag1033
((ltRp2896
ag1033
((ltRp2897
ag1033
((ltRp2898
ag1033
((ltRp2899
ag1033
((ltRp2900
ag1033
((ltRp2901
ag1033
((ltRp2902
ag1033
((ltRp2903
ag1033
((ltRp2904
ag1033
((ltRp2905
ag1033
((ltRp2906
ag1033
((ltRp2907
ag1033
((ltRp2908
ag1033
((ltRp2909
ag1033
((ltRp2910
ag1033
((ltRp2911
ag1033
((ltRp2912
ag1033
((ltRp2913
ag1033
((ltRp2914
ag1033
((ltRp2915
ag1033
((ltRp2916
ag1033
((ltRp2917
ag1033
((ltRp2918
ag1033
((ltRp2919
ag1033
((ltRp2920
ag1033
((ltRp2921
ag1033
((ltRp2922
ag1033
((ltRp2923
ag1033
((ltRp2924
ag1033
((ltRp2925
ag1033
((ltRp2926
ag1033
((ltRp2927
ag1033
((ltRp2928
ag1033
((ltRp2929
ag1033
((ltRp2930
ag1033
((ltRp2931
ag1033
((ltRp2932
ag1033
((ltRp2933
ag1033
((ltRp2934
ag1033
((ltRp2935
ag1033
((ltRp2936
ag1033
((lp2937
g2888
ag1018
(g1035
g1020
NtRp2938
(dp2939
g1038
S'1'
sg1039
I24
sbag1018
(g1035
g1020
NtRp2940
(dp2941
g1038
S'1'
sg1039
I25
sbag1018
(g1035
g1020
NtRp2942
(dp2943
g1038
S'1'
sg1039
I26
sbag1018
(g1035
g1020
NtRp2944
(dp2945
g1038
S'1'
sg1039
I27
sbag2886
ag1018
(g1035
g1020
NtRp2946
(dp2947
g1038
S'0'
sg1039
I458
sbag1018
(g1035
g1020
NtRp2948
(dp2949
g1038
S'0'
sg1039
I459
sbag1018
(g1035
g1020
NtRp2950
(dp2951
g1038
S'0'
sg1039
I460
sbag1018
(g1035
g1020
NtRp2952
(dp2953
g1038
S'0'
sg1039
I461
sbatRp2954
ag1033
((lp2955
g2944
ag2952
atRp2956
ag1033
((ltRp2957
ag1033
((ltRp2958
ag1033
((ltRp2959
ag1033
((ltRp2960
ag1033
((ltRp2961
ag1033
((ltRp2962
ag1033
((ltRp2963
ag1033
((ltRp2964
ag1033
((ltRp2965
ag1033
((ltRp2966
ag1033
((ltRp2967
ag1033
((ltRp2968
ag1033
((ltRp2969
ag1033
((ltRp2970
ag1033
((ltRp2971
ag1033
((ltRp2972
ag1033
((ltRp2973
ag1033
((ltRp2974
ag1033
((ltRp2975
ag1033
((ltRp2976
ag1033
((ltRp2977
ag1033
((ltRp2978
ag1033
((ltRp2979
ag1033
((ltRp2980
ag1033
((ltRp2981
ag1033
((ltRp2982
ag1033
((ltRp2983
ag1033
((ltRp2984
ag1033
((ltRp2985
ag1033
((ltRp2986
ag1033
((ltRp2987
ag1033
((ltRp2988
ag1033
((ltRp2989
ag1033
((ltRp2990
ag1033
((ltRp2991
ag1033
((ltRp2992
ag1033
((ltRp2993
ag1033
((ltRp2994
ag1033
((ltRp2995
ag1033
((ltRp2996
ag1033
((ltRp2997
ag1033
((ltRp2998
ag1033
((ltRp2999
ag1033
((ltRp3000
ag1033
((lp3001
g2944
ag2952
atRp3002
ag1033
((lp3003
g1018
(g1035
g1020
NtRp3004
(dp3005
g1038
S'0'
sg1039
I463
sbag2944
ag1018
(g1035
g1020
NtRp3006
(dp3007
g1038
S'1'
sg1039
I28
sbag1018
(g1035
g1020
NtRp3008
(dp3009
g1038
S'1'
sg1039
I29
sbag2952
ag1018
(g1035
g1020
NtRp3010
(dp3011
g1038
S'0'
sg1039
I462
sbatRp3012
ag1033
((ltRp3013
ag1033
((ltRp3014
ag1033
((ltRp3015
ag1033
((ltRp3016
ag1033
((ltRp3017
ag1033
((ltRp3018
ag1033
((ltRp3019
ag1033
((ltRp3020
ag1033
((ltRp3021
ag1033
((ltRp3022
ag1033
((ltRp3023
ag1033
((ltRp3024
ag1033
((ltRp3025
ag1033
((ltRp3026
ag1033
((ltRp3027
ag1033
((ltRp3028
ag1033
((ltRp3029
ag1033
((ltRp3030
ag1033
((ltRp3031
ag1033
((ltRp3032
ag1033
((ltRp3033
ag1033
((ltRp3034
ag1033
((ltRp3035
ag1033
((ltRp3036
ag1033
((ltRp3037
ag1033
((ltRp3038
ag1033
((ltRp3039
ag1033
((ltRp3040
ag1033
((ltRp3041
ag1033
((ltRp3042
ag1033
((ltRp3043
ag1033
((ltRp3044
ag1033
((ltRp3045
ag1033
((ltRp3046
ag1033
((ltRp3047
ag1033
((ltRp3048
ag1033
((ltRp3049
ag1033
((ltRp3050
ag1033
((ltRp3051
ag1033
((ltRp3052
ag1033
((ltRp3053
ag1033
((ltRp3054
ag1033
((ltRp3055
ag1033
((ltRp3056
ag1033
((ltRp3057
ag1033
((lp3058
g3004
ag3008
atRp3059
asS'si_gridsquaresys'
p3060
g1018
(cgrid
GridSquareSystem
p3061
g1020
NtRp3062
(dp3063
S'lngstep'
p3064
F0.00125
sS'southwest_gridsquare'
p3065
g1018
(cgrid
GridSquare
p3066
g1020
NtRp3067
(dp3068
S'sys'
p3069
g3062
sS'gridlat'
p3070
I36
sS'gridlng'
p3071
I25
sbsS'lngref'
p3072
F-79.457939102255295
sS'latstep'
p3073
F0.00087500000000000002
sS'latref'
p3074
F43.626966968592633
sS'northeast_gridsquare'
p3075
g1018
(g3066
g1020
NtRp3076
(dp3077
g3069
g3062
sg3070
I53
sg3071
I70
sbsbsS'si_plinename_to_gridsquareidxes'
p3078
(dp3079
S'1'
g1033
((lp3080
I0
aI1
aI2
aI3
aI4
aI5
aI6
aI7
aI8
aI9
aI10
aI11
aI12
aI13
aI14
aI15
aI16
aI17
aI18
aI19
aI20
aI21
aI22
aI550
aI551
aI46
aI47
aI48
aI49
aI50
aI51
aI52
aI53
aI54
aI55
aI56
aI57
aI58
aI59
aI60
aI61
aI62
aI63
aI64
aI65
aI66
aI67
aI68
aI596
aI597
aI92
aI93
aI94
aI95
aI96
aI97
aI98
aI99
aI100
aI101
aI102
aI103
aI104
aI105
aI106
aI107
aI108
aI109
aI110
aI111
aI112
aI113
aI114
aI642
aI643
aI138
aI139
aI140
aI141
aI142
aI143
aI144
aI145
aI146
aI147
aI148
aI149
aI150
aI151
aI152
aI153
aI154
aI155
aI156
aI157
aI158
aI159
aI160
aI688
aI689
aI184
aI185
aI186
aI187
aI188
aI189
aI190
aI191
aI192
aI193
aI194
aI195
aI196
aI197
aI198
aI199
aI200
aI201
aI202
aI203
aI204
aI205
aI206
aI734
aI735
aI231
aI232
aI233
aI234
aI235
aI236
aI237
aI238
aI239
aI240
aI241
aI242
aI243
aI244
aI245
aI246
aI247
aI248
aI249
aI250
aI251
aI252
aI258
aI259
aI260
aI261
aI262
aI263
aI780
aI781
aI298
aI299
aI300
aI301
aI304
aI305
aI306
aI307
aI308
aI309
aI827
aI344
aI345
aI346
aI347
aI348
aI350
aI351
aI352
aI353
aI354
aI355
aI356
aI357
aI358
aI359
aI360
aI394
aI395
aI396
aI401
aI402
aI403
aI404
aI405
aI406
aI407
aI452
aI453
aI454
aI455
aI456
aI457
aI458
aI501
aI502
aI503
aI504
aI505
atRp3081
sS'0'
g1033
((lp3082
I0
aI1
aI2
aI3
aI4
aI5
aI6
aI7
aI8
aI9
aI10
aI11
aI12
aI13
aI14
aI15
aI16
aI17
aI18
aI19
aI20
aI21
aI22
aI550
aI551
aI46
aI47
aI48
aI49
aI50
aI51
aI52
aI53
aI54
aI55
aI56
aI57
aI58
aI59
aI60
aI61
aI62
aI63
aI64
aI65
aI66
aI67
aI68
aI596
aI597
aI92
aI93
aI94
aI95
aI96
aI97
aI98
aI99
aI100
aI101
aI102
aI103
aI104
aI105
aI106
aI107
aI108
aI109
aI110
aI111
aI112
aI113
aI114
aI642
aI643
aI138
aI139
aI140
aI141
aI142
aI143
aI144
aI145
aI146
aI147
aI148
aI149
aI150
aI151
aI152
aI153
aI154
aI155
aI156
aI157
aI158
aI159
aI160
aI688
aI689
aI184
aI185
aI186
aI187
aI188
aI189
aI190
aI191
aI192
aI193
aI194
aI195
aI196
aI197
aI198
aI199
aI200
aI201
aI202
aI203
aI204
aI205
aI206
aI734
aI735
aI231
aI232
aI233
aI234
aI235
aI236
aI237
aI238
aI239
aI240
aI241
aI242
aI243
aI244
aI245
aI246
aI247
aI248
aI249
aI250
aI251
aI252
aI256
aI257
aI258
aI259
aI260
aI261
aI262
aI263
aI780
aI781
aI298
aI299
aI300
aI301
aI302
aI304
aI305
aI306
aI307
aI308
aI309
aI827
aI344
aI345
aI346
aI347
aI348
aI350
aI351
aI352
aI353
aI354
aI355
aI356
aI357
aI358
aI359
aI360
aI401
aI402
aI403
aI404
aI405
aI406
aI407
aI452
aI453
aI454
aI455
aI456
aI457
aI458
aI501
aI502
aI503
aI504
aI505
atRp3083
ssbsS'version'
p3084
I3
sS'datazoom_to_dir_to_routeptaddr_to_mofr'
p3085
(dp3086
I0
(lp3087
(lp3088
I0
aI463
aI2983
aI3295
aI5298
aI5698
aI5959
aa(lp3089
I0
aI463
aI2565
aI3142
aI3284
aI3517
aI5298
aI5698
aI5959
aasN(lp3090
(lp3091
I0
aF463.03651092035898
aF2565.90151780519
aF2644.5667525207405
aF2983.1476667631032
aF2984.3638515565026
aF2985.5641678182178
aF2986.7803526578809
aF2987.9806690103892
aF2989.1968538984702
aF2990.3971703374459
aF2991.6133552706656
aF2992.8136717998186
aF2994.029856779302
aF2995.2301733968798
aF2996.4463584236555
aF2997.6466751286798
aF2998.8628602011086
aF3000.0631769974939
aF3001.2793621174092
aF3002.4796790014457
aF3003.695864167431
aF3004.8961811392769
aF3006.1123663522339
aF3007.3126834143045
aF3008.5288686745539
aF3009.7291858248441
aF3010.945371131872
aF3012.1456883705869
aF3013.3618737226566
aF3014.5621910495911
aF3015.7783764484388
aF3016.9786938643665
aF3018.1948793095753
aF3019.395196815522
aF3020.6113823091482
aF3021.811699902541
aF3023.0278854418202
aF3024.2282031244113
aF3025.175805248341
aF3026.3867340027782
aF3027.5953031217809
aF3028.8062318498551
aF3030.0148010325674
aF3031.2257297325887
aF3032.4342989760876
aF3033.6452276500313
aF3034.8537969547529
aF3036.0647256002712
aF3037.2732949666188
aF3038.4842235857736
aF3039.6927930133438
aF3040.9037216053903
aF3042.112291094586
aF3043.323219658294
aF3044.5317892095181
aF3045.7427177461173
aF3046.9512873581266
aF3048.1622158677037
aF3049.3707855417751
aF3050.581714022554
aF3051.7902837578135
aF3053.0012122112848
aF3054.2097820098161
aF3055.4207104351472
aF3056.6292802940598
aF3057.8402086931142
aF3059.0487786157346
aF3060.2597069866488
aF3061.4682769696501
aF3062.6792053145732
aF3063.8877753600391
aF3065.0987036769088
aF3066.3072737848388
aF3067.5182020743136
aF3068.7267722430274
aF3069.9377005057654
aF3071.1462707369428
aF3072.3571989722859
aF3073.5657692634404
aF3074.7766974720466
aF3075.9852678264715
aF3077.1961960063659
aF3078.4047664211707
aF3079.6156945743282
aF3080.8242650515963
aF3082.0351931780169
aF3083.2437637160679
aF3084.4546918148076
aF3085.6632624144813
aF3086.8741904857388
aF3088.0827611470354
aF3089.2936891919285
aF3090.5022599140411
aF3091.713187930508
aF3092.9217587146463
aF3094.1326867047487
aF3095.341257550509
aF3096.5521855115262
aF3097.7607564193117
aF3098.9716843526476
aF3100.1802553228617
aF3101.3911832290878
aF3102.5997542601172
aF3103.8106821386618
aF3105.019253231716
aF3106.2301810835233
aF3107.4387522390393
aF3108.6496800635377
aF3109.8582512815151
aF3111.0691790778724
aF3112.2777503570342
aF3113.4886781260825
aF3114.6972494677052
aF3115.9081772106742
aF3117.1167486143549
aF3118.3276763299282
aF3119.5362477939861
aF3120.7471754821636
aF3121.9557470082791
aF3123.1666746697188
aF3124.3752462561779
aF3125.5861738898489
aF3126.7947455383651
aF3128.0056731446398
aF3129.2142448543391
aF3130.4251724332175
aF3131.6337442049735
aF3132.8446717557977
aF3134.0532435887367
aF3135.2641711128226
aF3136.4727430082216
aF3137.6836705042529
aF3138.8922424604311
aF3140.1031699294385
aF3141.3117419493196
aF3142.5226693915893
aF3143.7312414714429
aF3144.9401630536286
aF3146.1476751988307
aF3147.356596779412
aF3148.5641090518025
aF3149.7730306307858
aF3150.9805430297051
aF3152.1894646077908
aF3153.396977133898
aF3154.6058987118067
aF3155.8134113649339
aF3157.022332941945
aF3158.2298457219254
aF3159.4387672994667
aF3160.6462802066344
aF3161.8552017825641
aF3163.0627148160929
aF3164.2716363911318
aF3165.4791495508539
aF3166.6880711249951
aF3167.8955844117372
aF3169.1045059849948
aF3170.3120193990912
aF3171.5209409721579
aF3172.7284545122802
aF3173.9373760844496
aF3175.1448897517585
aF3176.3538113216164
aF3177.5613251142918
aF3178.770246683966
aF3179.9777606048215
aF3181.1866821728981
aF3182.3941962201138
aF3183.6031177872928
aF3184.810631961695
aF3186.0195535279904
aF3187.2270678292439
aF3188.4359893946416
aF3189.6435038234158
aF3190.852425389337
aF3192.0599399439689
aF3193.2688615082925
aF3194.4763761912709
aF3195.685297755404
aF3196.892812563246
aF3198.1017341257748
aF3199.3092490601434
aF3200.5181706224816
aF3201.7256856838685
aF3202.9346072446092
aF3204.1421224323549
aF3205.3510439914985
aF3206.5585593074229
aF3207.7674808649617
aF3208.9749963064187
aF3210.1839178637811
aF3211.391433434243
aF3212.6003549907082
aF3213.8078706863676
aF3215.0167922412284
aF3216.224308063905
aF3217.4332296192961
aF3218.6407455691574
aF3219.8496671243511
aF3221.0571832012297
aF3222.2661047555471
aF3223.4736209586163
aF3224.6825425120155
aF3225.8900588391202
aF3227.098980390936
aF3228.3064968495346
aF3229.5154184004532
aF3230.7229349822605
aF3231.9318565329818
aF3233.1393732427996
aF3234.3482947912235
aF3235.5558116273987
aF3236.7647331756325
aF3237.9722501389915
aF3239.1811716870488
aF3240.3886887774238
aF3241.5976103231701
aF3242.805127541063
aF3244.0140490859262
aF3245.2215664306677
aF3246.4304879753336
aF3247.6380054464321
aF3248.8469269909147
aF3250.054444588035
aF3251.2633661316204
aF3252.47088385493
aF3253.6798053962111
aF3254.8873232478645
aF3256.0962447889624
aF3257.303762766805
aF3258.5126843070057
aF3259.7202024120306
aF3260.9291239520412
aF3262.136642182094
aF3263.3455637198003
aF3264.5530820781964
aF3265.762003614313
aF3266.9695221002262
aF3268.1784436354387
aF3269.3859622475402
aF3270.5948837825763
aF3271.8024025216923
aF3273.0113240558317
aF3274.2188429217949
aF3275.4277644564577
aF3276.6352834486088
aF3277.8541153396955
aF3279.0554717525065
aF3280.2743036159582
aF3281.4756600940932
aF3282.6944919302559
aF3283.8958484753457
aF3285.1146802828898
aF3286.3160368966446
aF3287.5348686785765
aF3288.7362253576553
aF3289.9550571119798
aF3291.1564138584804
aF3292.375245585516
aF3293.576602398583
aF3294.5265599388022
aF3295.7380922207794
aF3296.9359465091766
aF3298.147478722623
aF3299.3453329692757
aF3300.5568651164576
aF3301.7547193213545
aF3302.966251401218
aF3304.1641055649502
aF3305.375637579235
aF3306.5734917017849
aF3307.7850236492782
aF3308.9828777312491
aF3310.1944096100528
aF3311.3922636502739
aF3312.6037954620224
aF3313.8016494616527
aF3315.0131812090349
aF3316.2110351674887
aF3317.4225668471304
aF3318.6204207655787
aF3319.8319523786927
aF3321.0298062548054
aF3322.2413378000733
aF3323.4391916338627
aF3324.6507231128662
aF3325.8485769066383
aF3327.0601083203269
aF3328.2579620735082
aF3329.4694934186655
aF3330.6673471289432
aF3331.878878407309
aF3333.0767320769901
aF3334.2882632903038
aF3335.4861169199735
aF3336.6976480647559
aF3337.8955016521022
aF3339.1070327294078
aF3340.3048862761634
aF3341.516417289788
aF3342.7142707941957
aF3343.9258017402381
aF3345.1236552029077
aF3346.3351860807875
aF3347.5330395040255
aF3348.7445703163262
aF3349.9424236972286
aF3351.1539544431598
aF3352.3518077828921
aF3353.5633384613461
aF3354.7611917604936
aF3355.9727223724194
aF3357.1705756303904
aF3358.3821061759468
aF3359.5799593915881
aF3360.7914898706163
aF3361.9893430450811
aF3363.2008734570541
aF3364.39872659094
aF3365.6102569342229
aF3366.8081100275181
aF3368.0196403066984
aF3369.2174933582319
aF3370.4290235698295
aF3371.626876579619
aF3372.8384067234761
aF3374.03625969326
aF3375.2477897699036
aF3376.4456426990969
aF3377.6571727105829
aF3378.8550255968612
aF3380.066555540343
aF3381.2644083866157
aF3382.4759382630423
aF3383.6737910664001
aF3384.8853208768255
aF3386.0831736419168
aF3387.294703385814
aF3388.4925561091495
aF3389.7040857866773
aF3390.9019384671033
aF3392.1134680768901
aF3393.3113207178903
aF3394.5228502601999
aF3395.7207028600301
aF3396.9322323371825
aF3398.1300848940914
aF3399.3416143044519
aF3400.5394668213617
aF3401.7509961630321
aF3402.9488486387713
aF3404.160377915548
aF3405.3582303495255
aF3406.569759560723
aF3407.7676119535299
aF3408.9791410964594
aF3410.176993446943
aF3411.3885225218683
aF3412.5863748317611
aF3413.7979038425833
aF3414.995756111879
aF3416.2072850553823
aF3417.4051372823487
aF3418.6166661583743
aF3419.8145183453353
aF3421.0260471536203
aF3422.2238992994112
aF3423.4354280428024
aF3424.6332801462518
aF3425.8448088228511
aF3427.0426608868806
aF3428.2541894950532
aF3429.4520415173329
aF3430.6635700581865
aF3431.8614220387162
aF3433.0729505144122
aF3434.2708024531862
aF3435.482330861405
aF3436.6801827595941
aF3437.8917111012847
aF3439.0895629582974
aF3440.3010912344084
aF3441.4989430508303
aF3442.7104712586734
aF3443.9083230327656
aF3445.1198511752928
aF3446.3177029099538
aF3447.5292309850038
aF3448.7270826785002
aF3449.9386106850184
aF3451.1364623361851
aF3452.347990277809
aF3453.545841887214
aF3454.757369762573
aF3455.9552213325587
aF3457.1667491387007
aF3458.3646006657768
aF3459.576128407025
aF3460.7739798929188
aF3461.9855075671112
aF3463.1833590118467
aF3464.3948866176124
aF3465.592738022337
aF3466.8042655630506
aF3468.0021169265988
aF3469.213644400415
aF3470.4114957210541
aF3471.6230231273926
aF3472.820874408606
aF3474.0324017493654
aF3475.2302529888229
aF3476.4417802618409
aF3477.6396314601284
aF3478.8511586682525
aF3480.0490098241985
aF3481.2605369655307
aF3482.4583880814776
aF3483.6699151541193
aF3484.8677662288956
aF3486.0792932366435
aF3487.277144269658
aF3488.4886712108773
aF3489.6865222027272
aF3490.898049075678
aF3492.0959000269436
aF3493.3074268333658
aF3494.505277742875
aF3495.7168044831906
aF3496.9146553509499
aF3498.1261820240516
aF3499.3240328523857
aF3500.5355594581679
aF3501.7334102435866
aF3502.9449367816273
aF3504.1427875270469
aF3505.3543139995081
aF3506.5521647037458
aF3507.7636911108912
aF3508.9615417739583
aF3510.1730681123081
aF3511.3709187330519
aF3512.5824450041878
aF3513.7802955855
aF3514.9918217920049
aF3516.1896723309756
aF3517.1327181924125
aF4026.0009651039463
aF4549.9065798181746
aF4638.6521432817872
aF4703.1936403105501
aF4755.3246069257912
aF4818.7914838097813
aF4871.8917611470397
aF5186.8704981097117
aF5298.8290515524095
aF5684.673678144296
aF5698.7024567510307
aF5714.1146537573468
aF5730.5271413545088
aF5747.9035844174959
aF5844.4572055660137
aF5903.622709753542
aF5959.6319684274695
aa(lp3092
I0
aF463.03651092035898
aF2565.90151780519
aF2644.5667525207405
aF2983.1476667631032
aF3020.4844912500666
aF3063.4241531748207
aF3099.1503708450296
aF3142.9174878079029
aF3196.4435479981462
aF3234.0590555532176
aF3284.3181346874467
aF3345.6828429153165
aF3517.1317421579279
aF4025.9999890694617
aF4549.9056037836899
aF4638.6511672473025
aF4703.1926642760654
aF4755.3236308913065
aF4818.7905077752966
aF4871.890785112555
aF5186.869522075227
aF5298.8280755179248
aF5684.6727021098113
aF5698.701480716546
aF5714.1136777228621
aF5730.5261653200241
aF5747.9026083830113
aF5844.4562295315291
aF5903.6217337190574
aF5959.6309923929848
aasI2
(lp3093
(lp3094
I0
aI463
aI2565
aI2644
aI2983
aI3025
aI3144
aI3295
aI4638
aI4703
aI4755
aI4818
aI4871
aI5298
aI5698
aI5747
aI5903
aI5959
aa(lp3095
I0
aI463
aI2565
aI2644
aI2983
aI3020
aI3099
aI3142
aI3196
aI3234
aI3284
aI3517
aI4638
aI4703
aI4755
aI4818
aI4871
aI5298
aI5698
aI5747
aI5903
aI5959
aasI3
(lp3096
(lp3097
I0
aI463
aI2565
aI2644
aI2983
aI3025
aI3144
aI3276
aI3292
aI3295
aI3514
aI4026
aI4549
aI4638
aI4703
aI4755
aI4818
aI4871
aI5186
aI5298
aI5684
aI5698
aI5714
aI5730
aI5747
aI5844
aI5903
aI5959
aa(lp3098
I0
aI463
aI2565
aI2644
aI2983
aI3020
aI3063
aI3099
aI3142
aI3196
aI3234
aI3284
aI3517
aI4026
aI4549
aI4638
aI4703
aI4755
aI4818
aI4871
aI5186
aI5298
aI5684
aI5698
aI5714
aI5730
aI5747
aI5844
aI5903
aI5959
aasI1
(lp3099
(lp3100
I0
aI463
aI2565
aI2644
aI2983
aI3295
aI4638
aI4755
aI4871
aI5298
aI5698
aI5903
aI5959
aa(lp3101
I0
aI463
aI2565
aI2644
aI2983
aI3142
aI3196
aI3284
aI3517
aI4638
aI4755
aI4871
aI5298
aI5698
aI5903
aI5959
aassb.