(iroutes
RouteInfo
p1
(dp2
S'is_split_by_dir'
p3
I01
sS'name'
p4
S'symington'
p5
sS'datazoom_to_dir_to_routepts'
p6
(dp7
I0
(dp8
I0
(lp9
(igeom
LatLng
p10
(dp11
S'lat'
p12
F43.68121086
sS'lng'
p13
F-79.476884010000006
sba(igeom
LatLng
p14
(dp15
g12
F43.681928560000003
sg13
F-79.467689390000004
sba(igeom
LatLng
p16
(dp17
g12
F43.67711783
sg13
F-79.464079139999996
sba(igeom
LatLng
p18
(dp19
g12
F43.671100000000003
sg13
F-79.462308879999995
sba(igeom
LatLng
p20
(dp21
g12
F43.670133829999997
sg13
F-79.458285570000001
sba(igeom
LatLng
p22
(dp23
g12
F43.670700340000003
sg13
F-79.453275199999993
sba(igeom
LatLng
p24
(dp25
g12
F43.657292769999998
sg13
F-79.447717670000003
sba(igeom
LatLng
p26
(dp27
g12
F43.656679560000001
sg13
F-79.453532699999997
sbasI1
(lp28
(igeom
LatLng
p29
(dp30
g12
F43.68121086
sg13
F-79.476884010000006
sba(igeom
LatLng
p31
(dp32
g12
F43.681928560000003
sg13
F-79.467689390000004
sba(igeom
LatLng
p33
(dp34
g12
F43.67711783
sg13
F-79.464079139999996
sba(igeom
LatLng
p35
(dp36
g12
F43.671100000000003
sg13
F-79.462308879999995
sba(igeom
LatLng
p37
(dp38
g12
F43.670133829999997
sg13
F-79.458285570000001
sba(igeom
LatLng
p39
(dp40
g12
F43.670700340000003
sg13
F-79.453275199999993
sba(igeom
LatLng
p41
(dp42
g12
F43.657292769999998
sg13
F-79.447717670000003
sba(igeom
LatLng
p43
(dp44
g12
F43.656679560000001
sg13
F-79.453532699999997
sbassN(dp45
I0
(lp46
g10
a(igeom
LatLng
p47
(dp48
g12
F43.681234285055396
sg13
F-79.476890920053478
sba(igeom
LatLng
p49
(dp50
g12
F43.681251207999999
sg13
F-79.476914050000005
sba(igeom
LatLng
p51
(dp52
g12
F43.681274633055381
sg13
F-79.47692096004802
sba(igeom
LatLng
p53
(dp54
g12
F43.681291555999998
sg13
F-79.476944090000003
sba(igeom
LatLng
p55
(dp56
g12
F43.681311729999997
sg13
F-79.476959109999996
sba(igeom
LatLng
p57
(dp58
g12
F43.681329873304406
sg13
F-79.476935580400564
sba(igeom
LatLng
p59
(dp60
g12
F43.681354105384614
sg13
F-79.476928574615386
sba(igeom
LatLng
p61
(dp62
g12
F43.68137224868903
sg13
F-79.476905045010142
sba(igeom
LatLng
p63
(dp64
g12
F43.68139648076923
sg13
F-79.476898039230761
sba(igeom
LatLng
p65
(dp66
g12
F43.681414624073639
sg13
F-79.476874509619677
sba(igeom
LatLng
p67
(dp68
g12
F43.681438856153846
sg13
F-79.476867503846151
sba(igeom
LatLng
p69
(dp70
g12
F43.681456999458256
sg13
F-79.476843974229226
sba(igeom
LatLng
p71
(dp72
g12
F43.681481231538463
sg13
F-79.476836968461541
sba(igeom
LatLng
p73
(dp74
g12
F43.681499374842865
sg13
F-79.476813438838789
sba(igeom
LatLng
p75
(dp76
g12
F43.681523606923079
sg13
F-79.476806433076916
sba(igeom
LatLng
p77
(dp78
g12
F43.681541750227495
sg13
F-79.47678290344831
sba(igeom
LatLng
p79
(dp80
g12
F43.681565982307696
sg13
F-79.476775897692306
sba(igeom
LatLng
p81
(dp82
g12
F43.68158717
sg13
F-79.476760630000001
sba(igeom
LatLng
p83
(dp84
g12
F43.6815881987309
sg13
F-79.476726065519628
sba(igeom
LatLng
p85
(dp86
g12
F43.681601982727273
sg13
F-79.476697231818179
sba(igeom
LatLng
p87
(dp88
g12
F43.681603011458165
sg13
F-79.476662667337123
sba(igeom
LatLng
p89
(dp90
g12
F43.681616795454545
sg13
F-79.47663383363637
sba(igeom
LatLng
p91
(dp92
g12
F43.681617824185437
sg13
F-79.47659926915459
sba(igeom
LatLng
p93
(dp94
g12
F43.681631608181817
sg13
F-79.476570435454548
sba(igeom
LatLng
p95
(dp96
g12
F43.681632636912703
sg13
F-79.476535870972072
sba(igeom
LatLng
p97
(dp98
g12
F43.68164642090909
sg13
F-79.476507037272725
sba(igeom
LatLng
p99
(dp100
g12
F43.681647449639989
sg13
F-79.476472472789538
sba(igeom
LatLng
p101
(dp102
g12
F43.681661233636362
sg13
F-79.476443639090917
sba(igeom
LatLng
p103
(dp104
g12
F43.681668639999998
sg13
F-79.476411940000006
sba(igeom
LatLng
p105
(dp106
g12
F43.681944080000001
sg13
F-79.473772640000007
sba(igeom
LatLng
p107
(dp108
g12
F43.68216133
sg13
F-79.471583960000004
sba(igeom
LatLng
p109
(dp110
g12
F43.682207890000001
sg13
F-79.47029114
sba(igeom
LatLng
p111
(dp112
g12
F43.682335909999999
sg13
F-79.469105600000006
sba(igeom
LatLng
p113
(dp114
g12
F43.682293229999999
sg13
F-79.468767639999996
sbag14
a(igeom
LatLng
p115
(dp116
g12
F43.681823819999998
sg13
F-79.467576739999998
sba(igeom
LatLng
p117
(dp118
g12
F43.681408709999999
sg13
F-79.467254879999999
sba(igeom
LatLng
p119
(dp120
g12
F43.680605649999997
sg13
F-79.466423390000003
sba(igeom
LatLng
p121
(dp122
g12
F43.680151739999999
sg13
F-79.465951320000002
sba(igeom
LatLng
p123
(dp124
g12
F43.679853010000002
sg13
F-79.465688470000003
sba(igeom
LatLng
p125
(dp126
g12
F43.679337019999998
sg13
F-79.465302230000006
sba(igeom
LatLng
p127
(dp128
g12
F43.678390389999997
sg13
F-79.464755060000002
sbag16
a(igeom
LatLng
p129
(dp130
g12
F43.676974280000003
sg13
F-79.464009399999995
sba(igeom
LatLng
p131
(dp132
g12
F43.676559140000002
sg13
F-79.463875290000004
sba(igeom
LatLng
p133
(dp134
g12
F43.675461140000003
sg13
F-79.463580250000007
sba(igeom
LatLng
p135
(dp136
g12
F43.67428941
sg13
F-79.463269109999999
sba(igeom
LatLng
p137
(dp138
g12
F43.67392469
sg13
F-79.463134999999994
sba(igeom
LatLng
p139
(dp140
g12
F43.673362089999998
sg13
F-79.462947249999999
sbag18
a(igeom
LatLng
p141
(dp142
g12
F43.670704219999998
sg13
F-79.460753199999999
sba(igeom
LatLng
p143
(dp144
g12
F43.67045976
sg13
F-79.459712510000003
sba(igeom
LatLng
p145
(dp146
g12
F43.670157109999998
sg13
F-79.458543059999997
sbag20
a(igeom
LatLng
p147
(dp148
g12
F43.670122190000001
sg13
F-79.457979800000004
sba(igeom
LatLng
p149
(dp150
g12
F43.670207550000001
sg13
F-79.457051750000005
sba(igeom
LatLng
p151
(dp152
g12
F43.670323959999997
sg13
F-79.455742839999999
sba(igeom
LatLng
p153
(dp154
g12
F43.670393799999999
sg13
F-79.455184939999995
sba(igeom
LatLng
p155
(dp156
g12
F43.670506330000002
sg13
F-79.454439280000003
sbag22
a(igeom
LatLng
p157
(dp158
g12
F43.669959220000003
sg13
F-79.452964069999993
sba(igeom
LatLng
p159
(dp160
g12
F43.66848083
sg13
F-79.452363250000005
sba(igeom
LatLng
p161
(dp162
g12
F43.667099409999999
sg13
F-79.451789259999998
sba(igeom
LatLng
p163
(dp164
g12
F43.665904230000002
sg13
F-79.451284999999999
sba(igeom
LatLng
p165
(dp166
g12
F43.662873480000002
sg13
F-79.450024369999994
sba(igeom
LatLng
p167
(dp168
g12
F43.66127461
sg13
F-79.449369910000001
sba(igeom
LatLng
p169
(dp170
g12
F43.659761080000003
sg13
F-79.448779819999999
sba(igeom
LatLng
p171
(dp172
g12
F43.65771969
sg13
F-79.447889329999995
sbag24
a(igeom
LatLng
p173
(dp174
g12
F43.65675719
sg13
F-79.450228210000006
sba(igeom
LatLng
p175
(dp176
g12
F43.656338030000001
sg13
F-79.452470539999993
sba(igeom
LatLng
p177
(dp178
g12
F43.656842570000002
sg13
F-79.452599289999995
sbag26
asI1
(lp179
g29
a(igeom
LatLng
p180
(dp181
g12
F43.681188710000001
sg13
F-79.476739510000002
sba(igeom
LatLng
p182
(dp183
g12
F43.68123026
sg13
F-79.476554100000001
sba(igeom
LatLng
p184
(dp185
g12
F43.681307230000002
sg13
F-79.476491490000001
sba(igeom
LatLng
p186
(dp187
g12
F43.681408709999999
sg13
F-79.476513859999997
sba(igeom
LatLng
p188
(dp189
g12
F43.681543130000001
sg13
F-79.476497899999998
sba(igeom
LatLng
p190
(dp191
g12
F43.681668639999998
sg13
F-79.476411940000006
sba(igeom
LatLng
p192
(dp193
g12
F43.681944080000001
sg13
F-79.473772640000007
sba(igeom
LatLng
p194
(dp195
g12
F43.68216133
sg13
F-79.471583960000004
sba(igeom
LatLng
p196
(dp197
g12
F43.682207890000001
sg13
F-79.47029114
sba(igeom
LatLng
p198
(dp199
g12
F43.682335909999999
sg13
F-79.469105600000006
sba(igeom
LatLng
p200
(dp201
g12
F43.682293229999999
sg13
F-79.468767639999996
sbag31
a(igeom
LatLng
p202
(dp203
g12
F43.681823819999998
sg13
F-79.467576739999998
sba(igeom
LatLng
p204
(dp205
g12
F43.681408709999999
sg13
F-79.467254879999999
sba(igeom
LatLng
p206
(dp207
g12
F43.680605649999997
sg13
F-79.466423390000003
sba(igeom
LatLng
p208
(dp209
g12
F43.680151739999999
sg13
F-79.465951320000002
sba(igeom
LatLng
p210
(dp211
g12
F43.679853010000002
sg13
F-79.465688470000003
sba(igeom
LatLng
p212
(dp213
g12
F43.679337019999998
sg13
F-79.465302230000006
sba(igeom
LatLng
p214
(dp215
g12
F43.678390389999997
sg13
F-79.464755060000002
sbag33
a(igeom
LatLng
p216
(dp217
g12
F43.676974280000003
sg13
F-79.464009399999995
sba(igeom
LatLng
p218
(dp219
g12
F43.676559140000002
sg13
F-79.463875290000004
sba(igeom
LatLng
p220
(dp221
g12
F43.675461140000003
sg13
F-79.463580250000007
sba(igeom
LatLng
p222
(dp223
g12
F43.67428941
sg13
F-79.463269109999999
sba(igeom
LatLng
p224
(dp225
g12
F43.67392469
sg13
F-79.463134999999994
sba(igeom
LatLng
p226
(dp227
g12
F43.673362089999998
sg13
F-79.462947249999999
sbag35
a(igeom
LatLng
p228
(dp229
g12
F43.670704219999998
sg13
F-79.460753199999999
sba(igeom
LatLng
p230
(dp231
g12
F43.67045976
sg13
F-79.459712510000003
sba(igeom
LatLng
p232
(dp233
g12
F43.670157109999998
sg13
F-79.458543059999997
sbag37
a(igeom
LatLng
p234
(dp235
g12
F43.670122190000001
sg13
F-79.457979800000004
sba(igeom
LatLng
p236
(dp237
g12
F43.670207550000001
sg13
F-79.457051750000005
sba(igeom
LatLng
p238
(dp239
g12
F43.670323959999997
sg13
F-79.455742839999999
sba(igeom
LatLng
p240
(dp241
g12
F43.670393799999999
sg13
F-79.455184939999995
sba(igeom
LatLng
p242
(dp243
g12
F43.670506330000002
sg13
F-79.454439280000003
sbag39
a(igeom
LatLng
p244
(dp245
g12
F43.669959220000003
sg13
F-79.452964069999993
sba(igeom
LatLng
p246
(dp247
g12
F43.66848083
sg13
F-79.452363250000005
sba(igeom
LatLng
p248
(dp249
g12
F43.667099409999999
sg13
F-79.451789259999998
sba(igeom
LatLng
p250
(dp251
g12
F43.665904230000002
sg13
F-79.451284999999999
sba(igeom
LatLng
p252
(dp253
g12
F43.662873480000002
sg13
F-79.450024369999994
sba(igeom
LatLng
p254
(dp255
g12
F43.66127461
sg13
F-79.449369910000001
sba(igeom
LatLng
p256
(dp257
g12
F43.659761080000003
sg13
F-79.448779819999999
sba(igeom
LatLng
p258
(dp259
g12
F43.65771969
sg13
F-79.447889329999995
sbag41
a(igeom
LatLng
p260
(dp261
g12
F43.65675719
sg13
F-79.450228210000006
sba(igeom
LatLng
p262
(dp263
g12
F43.656338030000001
sg13
F-79.452470539999993
sba(igeom
LatLng
p264
(dp265
g12
F43.656842570000002
sg13
F-79.452599289999995
sbag43
assI2
(dp266
I0
(lp267
g10
ag55
ag81
ag103
ag107
ag111
ag113
ag14
ag123
ag125
ag16
ag18
ag20
ag151
ag22
ag24
ag175
ag177
ag26
asI1
(lp268
g29
ag182
ag190
ag194
ag198
ag200
ag31
ag210
ag212
ag33
ag35
ag37
ag238
ag39
ag41
ag262
ag264
ag43
assI3
(dp269
I0
(lp270
g10
ag55
ag81
ag103
ag107
ag109
ag111
ag113
ag14
ag115
ag117
ag121
ag123
ag125
ag127
ag16
ag129
ag131
ag135
ag139
ag18
ag141
ag143
ag145
ag20
ag147
ag151
ag155
ag22
ag165
ag167
ag169
ag24
ag173
ag175
ag177
ag26
asI1
(lp271
g29
ag180
ag182
ag184
ag186
ag188
ag190
ag194
ag196
ag198
ag200
ag31
ag202
ag204
ag208
ag210
ag212
ag214
ag33
ag216
ag218
ag222
ag226
ag35
ag228
ag230
ag232
ag37
ag234
ag238
ag242
ag39
ag252
ag254
ag256
ag41
ag260
ag262
ag264
ag43
assI1
(dp272
I0
(lp273
g10
ag103
ag107
ag111
ag14
ag123
ag16
ag18
ag20
ag22
ag24
ag175
ag177
ag26
asI1
(lp274
g29
ag190
ag194
ag198
ag31
ag210
ag33
ag35
ag37
ag39
ag41
ag262
ag264
ag43
asssS'snapgraph'
p275
ccopy_reg
_reconstructor
p276
(csnapgraph
SnapGraph
p277
c__builtin__
object
p278
NtRp279
(dp280
S'use_vert_only_floyd_warshall'
p281
I00
sS'plinename2pts'
p282
(dp283
S'1'
g179
sS'0'
g46
ssg4
NsS'use_floyd_warshall'
p284
I00
sS'plinename_to_ptidx_to_mapl'
p285
(dp286
S'1'
(lp287
I0
aF11.87156450005879
aF27.472109679887463
aF37.396330641212941
aF48.816503812548511
aF63.809954212992672
aF79.375416307350946
aF293.69268446897172
aF471.24490954851609
aF575.2766914884777
aF671.61389820470686
aF699.18647557475254
aF794.85299396294943
aF809.59950034622261
aF862.4894214710655
aF973.98308890930957
aF1037.1032488462429
aF1076.4536765501589
aF1141.6606550861031
aF1255.6846583539955
aF1407.1837755580789
aF1424.0930351256427
aF1471.4712602017808
aF1595.7781913367955
aF1728.3757503668114
aF1770.3171088338802
aF1834.6360231044241
aF2091.2121955744728
aF2223.7742959147581
aF2311.7308151883517
aF2411.5731211063753
aF2432.4326244797498
aF2457.0460956826528
aF2532.2484715040782
aF2638.2578816951477
aF2683.7714208839793
aF2745.0020024946875
aF2841.0281892798266
aF2927.104562595674
aF3098.3541814011273
aF3258.6596924681849
aF3397.5317793524559
aF3749.2646291981528
aF3934.578232854225
aF4109.3437742464612
aF4347.238625990326
aF4396.6502132966725
aF4607.0975895083347
aF4793.3096562944629
aF4850.3282312185265
aF4927.5329934623105
asS'0'
(lp288
I0
aF2.6618731201580901
aF5.306258085755891
aF7.9681310350892929
aF10.612515432419874
aF13.158843337982368
aF15.923212439491165
aF18.674426591325698
aF21.438795099278956
aF24.190009073817304
aF26.954376988581707
aF29.705590785260608
aF32.469958107350763
aF35.221171727281032
aF37.985538456180294
aF40.736751899780792
aF43.501118037035042
aF46.252331301393163
aF48.907526865524581
aF51.687828663437124
aF54.465735963911115
aF57.246037130648588
aF60.023943907689862
aF62.804244447338526
aF65.582150699314383
aF68.362450610881481
aF71.140356339034668
aF73.92065562152743
aF76.698560822982458
aF79.375877748521816
aF293.69314591014256
aF471.24537098968693
aF575.27715292964854
aF671.6143596458777
aF699.18693701592338
aF794.85345540412027
aF809.59996178739334
aF862.48988291223623
aF973.9835503504803
aF1037.1037102874136
aF1076.4541379913298
aF1141.6611165272741
aF1255.6851197951664
aF1407.1842369992498
aF1424.0934965668137
aF1471.4717216429517
aF1595.7786527779665
aF1728.3762118079824
aF1770.3175702750511
aF1834.6364845455951
aF2091.2126570156438
aF2223.7747573559291
aF2311.7312766295227
aF2411.5735825475463
aF2432.4330859209208
aF2457.0465571238237
aF2532.2489329452492
aF2638.2583431363187
aF2683.7718823251503
aF2745.0024639358585
aF2841.0286507209976
aF2927.105024036845
aF3098.3546428422983
aF3258.6601539093558
aF3397.5322407936269
aF3749.2650906393237
aF3934.578694295396
aF4109.3442356876312
aF4347.239087431496
aF4396.6506747378426
aF4607.0980509495048
aF4793.310117735633
aF4850.3286926596966
aF4927.5334549034806
assS'si_linesegaddrs_by_gridsquareidx'
p289
(lp290
c__builtin__
set
p291
((ltRp292
ag291
((ltRp293
ag291
((ltRp294
ag291
((ltRp295
ag291
((ltRp296
ag291
((ltRp297
ag291
((ltRp298
ag291
((ltRp299
ag291
((ltRp300
ag291
((ltRp301
ag291
((ltRp302
ag291
((ltRp303
ag291
((ltRp304
ag291
((ltRp305
ag291
((ltRp306
ag291
((ltRp307
ag291
((ltRp308
ag291
((ltRp309
ag291
((ltRp310
ag291
((lp311
g276
(csnapgraph
PtAddr
p312
g278
NtRp313
(dp314
S'plinename'
p315
S'1'
sS'ptidx'
p316
I49
sbag276
(g312
g278
NtRp317
(dp318
g315
S'0'
sg316
I72
sbatRp319
ag291
((lp320
g276
(g312
g278
NtRp321
(dp322
g315
S'1'
sg316
I48
sbag313
ag276
(g312
g278
NtRp323
(dp324
g315
S'0'
sg316
I70
sbag276
(g312
g278
NtRp325
(dp326
g315
S'0'
sg316
I71
sbag317
ag276
(g312
g278
NtRp327
(dp328
g315
S'1'
sg316
I47
sbatRp329
ag291
((lp330
g323
ag327
atRp331
ag291
((lp332
g323
ag327
atRp333
ag291
((ltRp334
ag291
((ltRp335
ag291
((ltRp336
ag291
((ltRp337
ag291
((ltRp338
ag291
((ltRp339
ag291
((ltRp340
ag291
((ltRp341
ag291
((ltRp342
ag291
((ltRp343
ag291
((ltRp344
ag291
((ltRp345
ag291
((ltRp346
ag291
((ltRp347
ag291
((ltRp348
ag291
((ltRp349
ag291
((ltRp350
ag291
((ltRp351
ag291
((ltRp352
ag291
((ltRp353
ag291
((ltRp354
ag291
((lp355
g313
ag317
atRp356
ag291
((lp357
g321
ag313
ag323
ag325
ag317
ag327
atRp358
ag291
((lp359
g323
ag327
atRp360
ag291
((lp361
g323
ag276
(g312
g278
NtRp362
(dp363
g315
S'0'
sg316
I69
sbag276
(g312
g278
NtRp364
(dp365
g315
S'1'
sg316
I46
sbag327
atRp366
ag291
((lp367
g362
ag364
atRp368
ag291
((lp369
g362
ag276
(g312
g278
NtRp370
(dp371
g315
S'1'
sg316
I45
sbag364
ag276
(g312
g278
NtRp372
(dp373
g315
S'0'
sg316
I68
sbatRp374
ag291
((ltRp375
ag291
((ltRp376
ag291
((ltRp377
ag291
((ltRp378
ag291
((ltRp379
ag291
((ltRp380
ag291
((ltRp381
ag291
((ltRp382
ag291
((ltRp383
ag291
((ltRp384
ag291
((ltRp385
ag291
((ltRp386
ag291
((ltRp387
ag291
((ltRp388
ag291
((ltRp389
ag291
((ltRp390
ag291
((ltRp391
ag291
((ltRp392
ag291
((ltRp393
ag291
((ltRp394
ag291
((ltRp395
ag291
((ltRp396
ag291
((ltRp397
ag291
((lp398
g276
(g312
g278
NtRp399
(dp400
g315
S'0'
sg316
I67
sbag276
(g312
g278
NtRp401
(dp402
g315
S'1'
sg316
I44
sbatRp403
ag291
((lp404
g399
ag401
ag370
ag372
atRp405
ag291
((ltRp406
ag291
((ltRp407
ag291
((ltRp408
ag291
((ltRp409
ag291
((ltRp410
ag291
((ltRp411
ag291
((ltRp412
ag291
((ltRp413
ag291
((ltRp414
ag291
((ltRp415
ag291
((ltRp416
ag291
((ltRp417
ag291
((ltRp418
ag291
((ltRp419
ag291
((ltRp420
ag291
((ltRp421
ag291
((ltRp422
ag291
((ltRp423
ag291
((ltRp424
ag291
((ltRp425
ag291
((ltRp426
ag291
((ltRp427
ag291
((ltRp428
ag291
((lp429
g399
ag401
atRp430
ag291
((lp431
g399
ag401
atRp432
ag291
((ltRp433
ag291
((ltRp434
ag291
((ltRp435
ag291
((ltRp436
ag291
((ltRp437
ag291
((ltRp438
ag291
((ltRp439
ag291
((ltRp440
ag291
((ltRp441
ag291
((ltRp442
ag291
((ltRp443
ag291
((ltRp444
ag291
((ltRp445
ag291
((ltRp446
ag291
((ltRp447
ag291
((ltRp448
ag291
((ltRp449
ag291
((ltRp450
ag291
((ltRp451
ag291
((ltRp452
ag291
((ltRp453
ag291
((ltRp454
ag291
((lp455
g276
(g312
g278
NtRp456
(dp457
g315
S'0'
sg316
I66
sbag276
(g312
g278
NtRp458
(dp459
g315
S'1'
sg316
I43
sbatRp460
ag291
((lp461
g399
ag456
ag458
ag401
atRp462
ag291
((lp463
g399
ag401
atRp464
ag291
((ltRp465
ag291
((ltRp466
ag291
((ltRp467
ag291
((ltRp468
ag291
((ltRp469
ag291
((ltRp470
ag291
((ltRp471
ag291
((ltRp472
ag291
((ltRp473
ag291
((ltRp474
ag291
((ltRp475
ag291
((ltRp476
ag291
((ltRp477
ag291
((ltRp478
ag291
((ltRp479
ag291
((ltRp480
ag291
((ltRp481
ag291
((ltRp482
ag291
((ltRp483
ag291
((ltRp484
ag291
((ltRp485
ag291
((ltRp486
ag291
((lp487
g456
ag458
atRp488
ag291
((lp489
g456
ag458
atRp490
ag291
((ltRp491
ag291
((ltRp492
ag291
((ltRp493
ag291
((ltRp494
ag291
((ltRp495
ag291
((ltRp496
ag291
((ltRp497
ag291
((ltRp498
ag291
((ltRp499
ag291
((ltRp500
ag291
((ltRp501
ag291
((ltRp502
ag291
((ltRp503
ag291
((ltRp504
ag291
((ltRp505
ag291
((ltRp506
ag291
((ltRp507
ag291
((ltRp508
ag291
((ltRp509
ag291
((ltRp510
ag291
((ltRp511
ag291
((ltRp512
ag291
((ltRp513
ag291
((lp514
g276
(g312
g278
NtRp515
(dp516
g315
S'1'
sg316
I42
sbag458
ag276
(g312
g278
NtRp517
(dp518
g315
S'0'
sg316
I65
sbag456
atRp519
ag291
((lp520
g456
ag458
atRp521
ag291
((ltRp522
ag291
((ltRp523
ag291
((ltRp524
ag291
((ltRp525
ag291
((ltRp526
ag291
((ltRp527
ag291
((ltRp528
ag291
((ltRp529
ag291
((ltRp530
ag291
((ltRp531
ag291
((ltRp532
ag291
((ltRp533
ag291
((ltRp534
ag291
((ltRp535
ag291
((ltRp536
ag291
((ltRp537
ag291
((ltRp538
ag291
((ltRp539
ag291
((ltRp540
ag291
((ltRp541
ag291
((ltRp542
ag291
((ltRp543
ag291
((ltRp544
ag291
((lp545
g515
ag517
atRp546
ag291
((ltRp547
ag291
((ltRp548
ag291
((ltRp549
ag291
((ltRp550
ag291
((ltRp551
ag291
((ltRp552
ag291
((ltRp553
ag291
((ltRp554
ag291
((ltRp555
ag291
((ltRp556
ag291
((ltRp557
ag291
((ltRp558
ag291
((ltRp559
ag291
((ltRp560
ag291
((ltRp561
ag291
((ltRp562
ag291
((ltRp563
ag291
((ltRp564
ag291
((ltRp565
ag291
((ltRp566
ag291
((ltRp567
ag291
((ltRp568
ag291
((ltRp569
ag291
((lp570
g276
(g312
g278
NtRp571
(dp572
g315
S'1'
sg316
I41
sbag276
(g312
g278
NtRp573
(dp574
g315
S'0'
sg316
I64
sbatRp575
ag291
((lp576
g571
ag515
ag517
ag573
atRp577
ag291
((ltRp578
ag291
((ltRp579
ag291
((ltRp580
ag291
((ltRp581
ag291
((ltRp582
ag291
((ltRp583
ag291
((ltRp584
ag291
((ltRp585
ag291
((ltRp586
ag291
((ltRp587
ag291
((ltRp588
ag291
((ltRp589
ag291
((ltRp590
ag291
((ltRp591
ag291
((ltRp592
ag291
((ltRp593
ag291
((ltRp594
ag291
((ltRp595
ag291
((ltRp596
ag291
((ltRp597
ag291
((ltRp598
ag291
((ltRp599
ag291
((ltRp600
ag291
((lp601
g571
ag573
atRp602
ag291
((lp603
g571
ag573
atRp604
ag291
((ltRp605
ag291
((ltRp606
ag291
((ltRp607
ag291
((ltRp608
ag291
((ltRp609
ag291
((ltRp610
ag291
((ltRp611
ag291
((ltRp612
ag291
((ltRp613
ag291
((ltRp614
ag291
((ltRp615
ag291
((ltRp616
ag291
((ltRp617
ag291
((ltRp618
ag291
((ltRp619
ag291
((ltRp620
ag291
((ltRp621
ag291
((ltRp622
ag291
((ltRp623
ag291
((ltRp624
ag291
((ltRp625
ag291
((ltRp626
ag291
((ltRp627
ag291
((lp628
g571
ag573
atRp629
ag291
((lp630
g571
ag573
atRp631
ag291
((ltRp632
ag291
((ltRp633
ag291
((ltRp634
ag291
((ltRp635
ag291
((ltRp636
ag291
((ltRp637
ag291
((ltRp638
ag291
((ltRp639
ag291
((ltRp640
ag291
((ltRp641
ag291
((ltRp642
ag291
((ltRp643
ag291
((ltRp644
ag291
((ltRp645
ag291
((ltRp646
ag291
((ltRp647
ag291
((ltRp648
ag291
((ltRp649
ag291
((ltRp650
ag291
((ltRp651
ag291
((ltRp652
ag291
((ltRp653
ag291
((lp654
g276
(g312
g278
NtRp655
(dp656
g315
S'1'
sg316
I40
sbag276
(g312
g278
NtRp657
(dp658
g315
S'0'
sg316
I63
sbatRp659
ag291
((lp660
g655
ag571
ag657
ag573
atRp661
ag291
((lp662
g571
ag573
atRp663
ag291
((ltRp664
ag291
((ltRp665
ag291
((ltRp666
ag291
((ltRp667
ag291
((ltRp668
ag291
((ltRp669
ag291
((ltRp670
ag291
((ltRp671
ag291
((ltRp672
ag291
((ltRp673
ag291
((ltRp674
ag291
((ltRp675
ag291
((ltRp676
ag291
((ltRp677
ag291
((ltRp678
ag291
((ltRp679
ag291
((ltRp680
ag291
((ltRp681
ag291
((ltRp682
ag291
((ltRp683
ag291
((ltRp684
ag291
((ltRp685
ag291
((lp686
g655
ag657
ag276
(g312
g278
NtRp687
(dp688
g315
S'0'
sg316
I62
sbag276
(g312
g278
NtRp689
(dp690
g315
S'1'
sg316
I39
sbatRp691
ag291
((lp692
g655
ag657
atRp693
ag291
((ltRp694
ag291
((ltRp695
ag291
((ltRp696
ag291
((ltRp697
ag291
((ltRp698
ag291
((ltRp699
ag291
((ltRp700
ag291
((ltRp701
ag291
((ltRp702
ag291
((ltRp703
ag291
((ltRp704
ag291
((ltRp705
ag291
((ltRp706
ag291
((ltRp707
ag291
((ltRp708
ag291
((ltRp709
ag291
((ltRp710
ag291
((ltRp711
ag291
((ltRp712
ag291
((ltRp713
ag291
((ltRp714
ag291
((ltRp715
ag291
((ltRp716
ag291
((lp717
g687
ag689
atRp718
ag291
((ltRp719
ag291
((ltRp720
ag291
((ltRp721
ag291
((ltRp722
ag291
((ltRp723
ag291
((ltRp724
ag291
((ltRp725
ag291
((ltRp726
ag291
((ltRp727
ag291
((ltRp728
ag291
((ltRp729
ag291
((ltRp730
ag291
((ltRp731
ag291
((ltRp732
ag291
((ltRp733
ag291
((ltRp734
ag291
((ltRp735
ag291
((ltRp736
ag291
((ltRp737
ag291
((ltRp738
ag291
((ltRp739
ag291
((ltRp740
ag291
((ltRp741
ag291
((lp742
g276
(g312
g278
NtRp743
(dp744
g315
S'0'
sg316
I61
sbag276
(g312
g278
NtRp745
(dp746
g315
S'1'
sg316
I38
sbatRp747
ag291
((lp748
g687
ag743
ag745
ag689
atRp749
ag291
((ltRp750
ag291
((ltRp751
ag291
((ltRp752
ag291
((ltRp753
ag291
((ltRp754
ag291
((ltRp755
ag291
((ltRp756
ag291
((ltRp757
ag291
((ltRp758
ag291
((ltRp759
ag291
((ltRp760
ag291
((ltRp761
ag291
((ltRp762
ag291
((ltRp763
ag291
((ltRp764
ag291
((ltRp765
ag291
((ltRp766
ag291
((ltRp767
ag291
((ltRp768
ag291
((ltRp769
ag291
((ltRp770
ag291
((ltRp771
ag291
((ltRp772
ag291
((lp773
g743
ag745
atRp774
ag291
((lp775
g743
ag745
atRp776
ag291
((ltRp777
ag291
((ltRp778
ag291
((ltRp779
ag291
((ltRp780
ag291
((ltRp781
ag291
((ltRp782
ag291
((ltRp783
ag291
((ltRp784
ag291
((ltRp785
ag291
((ltRp786
ag291
((ltRp787
ag291
((ltRp788
ag291
((ltRp789
ag291
((ltRp790
ag291
((ltRp791
ag291
((ltRp792
ag291
((lp793
g276
(g312
g278
NtRp794
(dp795
g315
S'0'
sg316
I50
sbag276
(g312
g278
NtRp796
(dp797
g315
S'1'
sg316
I27
sbatRp798
ag291
((lp799
g276
(g312
g278
NtRp800
(dp801
g315
S'0'
sg316
I51
sbag794
ag796
ag276
(g312
g278
NtRp802
(dp803
g315
S'1'
sg316
I28
sbatRp804
ag291
((lp805
g800
ag802
ag276
(g312
g278
NtRp806
(dp807
g315
S'1'
sg316
I29
sbag276
(g312
g278
NtRp808
(dp809
g315
S'0'
sg316
I52
sbatRp810
ag291
((lp811
g808
ag276
(g312
g278
NtRp812
(dp813
g315
S'0'
sg316
I53
sbag276
(g312
g278
NtRp814
(dp815
g315
S'0'
sg316
I54
sbag276
(g312
g278
NtRp816
(dp817
g315
S'0'
sg316
I55
sbag806
ag276
(g312
g278
NtRp818
(dp819
g315
S'1'
sg316
I30
sbag276
(g312
g278
NtRp820
(dp821
g315
S'1'
sg316
I31
sbag276
(g312
g278
NtRp822
(dp823
g315
S'1'
sg316
I32
sbatRp824
ag291
((lp825
g822
ag276
(g312
g278
NtRp826
(dp827
g315
S'1'
sg316
I33
sbag816
ag276
(g312
g278
NtRp828
(dp829
g315
S'0'
sg316
I56
sbatRp830
ag291
((lp831
g826
ag276
(g312
g278
NtRp832
(dp833
g315
S'1'
sg316
I34
sbag276
(g312
g278
NtRp834
(dp835
g315
S'0'
sg316
I57
sbag828
atRp836
ag291
((lp837
g834
ag276
(g312
g278
NtRp838
(dp839
g315
S'0'
sg316
I58
sbag276
(g312
g278
NtRp840
(dp841
g315
S'0'
sg316
I59
sbag832
ag276
(g312
g278
NtRp842
(dp843
g315
S'1'
sg316
I35
sbag276
(g312
g278
NtRp844
(dp845
g315
S'1'
sg316
I36
sbatRp846
ag291
((lp847
g840
ag276
(g312
g278
NtRp848
(dp849
g315
S'0'
sg316
I60
sbag743
ag844
ag276
(g312
g278
NtRp850
(dp851
g315
S'1'
sg316
I37
sbag745
atRp852
ag291
((lp853
g743
ag745
atRp854
ag291
((ltRp855
ag291
((ltRp856
ag291
((ltRp857
ag291
((ltRp858
ag291
((ltRp859
ag291
((ltRp860
ag291
((ltRp861
ag291
((ltRp862
ag291
((ltRp863
ag291
((ltRp864
ag291
((ltRp865
ag291
((ltRp866
ag291
((ltRp867
ag291
((ltRp868
ag291
((ltRp869
ag291
((lp870
g276
(g312
g278
NtRp871
(dp872
g315
S'1'
sg316
I26
sbag276
(g312
g278
NtRp873
(dp874
g315
S'0'
sg316
I49
sbatRp875
ag291
((lp876
g871
ag796
ag873
ag794
atRp877
ag291
((lp878
g794
ag796
atRp879
ag291
((ltRp880
ag291
((ltRp881
ag291
((ltRp882
ag291
((ltRp883
ag291
((ltRp884
ag291
((ltRp885
ag291
((ltRp886
ag291
((ltRp887
ag291
((ltRp888
ag291
((ltRp889
ag291
((ltRp890
ag291
((ltRp891
ag291
((ltRp892
ag291
((ltRp893
ag291
((ltRp894
ag291
((ltRp895
ag291
((ltRp896
ag291
((ltRp897
ag291
((ltRp898
ag291
((ltRp899
ag291
((ltRp900
ag291
((ltRp901
ag291
((lp902
g871
ag873
atRp903
ag291
((lp904
g871
ag873
atRp905
ag291
((ltRp906
ag291
((ltRp907
ag291
((ltRp908
ag291
((ltRp909
ag291
((ltRp910
ag291
((ltRp911
ag291
((ltRp912
ag291
((ltRp913
ag291
((ltRp914
ag291
((ltRp915
ag291
((ltRp916
ag291
((ltRp917
ag291
((ltRp918
ag291
((ltRp919
ag291
((ltRp920
ag291
((ltRp921
ag291
((ltRp922
ag291
((ltRp923
ag291
((ltRp924
ag291
((ltRp925
ag291
((ltRp926
ag291
((ltRp927
ag291
((ltRp928
ag291
((lp929
g871
ag873
atRp930
ag291
((lp931
g871
ag873
atRp932
ag291
((ltRp933
ag291
((ltRp934
ag291
((ltRp935
ag291
((ltRp936
ag291
((ltRp937
ag291
((ltRp938
ag291
((ltRp939
ag291
((ltRp940
ag291
((ltRp941
ag291
((ltRp942
ag291
((ltRp943
ag291
((ltRp944
ag291
((ltRp945
ag291
((ltRp946
ag291
((ltRp947
ag291
((ltRp948
ag291
((ltRp949
ag291
((ltRp950
ag291
((ltRp951
ag291
((ltRp952
ag291
((ltRp953
ag291
((ltRp954
ag291
((ltRp955
ag291
((lp956
g276
(g312
g278
NtRp957
(dp958
g315
S'0'
sg316
I47
sbag276
(g312
g278
NtRp959
(dp960
g315
S'0'
sg316
I48
sbag873
ag276
(g312
g278
NtRp961
(dp962
g315
S'1'
sg316
I24
sbag276
(g312
g278
NtRp963
(dp964
g315
S'1'
sg316
I25
sbag871
atRp965
ag291
((lp966
g871
ag873
atRp967
ag291
((ltRp968
ag291
((ltRp969
ag291
((ltRp970
ag291
((ltRp971
ag291
((ltRp972
ag291
((ltRp973
ag291
((ltRp974
ag291
((ltRp975
ag291
((ltRp976
ag291
((ltRp977
ag291
((ltRp978
ag291
((ltRp979
ag291
((ltRp980
ag291
((ltRp981
ag291
((ltRp982
ag291
((ltRp983
ag291
((ltRp984
ag291
((ltRp985
ag291
((ltRp986
ag291
((ltRp987
ag291
((ltRp988
ag291
((ltRp989
ag291
((ltRp990
ag291
((lp991
g961
ag957
ag276
(g312
g278
NtRp992
(dp993
g315
S'0'
sg316
I46
sbag276
(g312
g278
NtRp994
(dp995
g315
S'1'
sg316
I23
sbatRp996
ag291
((ltRp997
ag291
((ltRp998
ag291
((ltRp999
ag291
((ltRp1000
ag291
((ltRp1001
ag291
((ltRp1002
ag291
((ltRp1003
ag291
((ltRp1004
ag291
((ltRp1005
ag291
((ltRp1006
ag291
((ltRp1007
ag291
((ltRp1008
ag291
((ltRp1009
ag291
((ltRp1010
ag291
((ltRp1011
ag291
((ltRp1012
ag291
((ltRp1013
ag291
((ltRp1014
ag291
((ltRp1015
ag291
((ltRp1016
ag291
((ltRp1017
ag291
((ltRp1018
ag291
((ltRp1019
ag291
((ltRp1020
ag291
((lp1021
g992
ag276
(g312
g278
NtRp1022
(dp1023
g315
S'0'
sg316
I45
sbag276
(g312
g278
NtRp1024
(dp1025
g315
S'1'
sg316
I22
sbag994
atRp1026
ag291
((ltRp1027
ag291
((ltRp1028
ag291
((ltRp1029
ag291
((ltRp1030
ag291
((ltRp1031
ag291
((ltRp1032
ag291
((ltRp1033
ag291
((ltRp1034
ag291
((ltRp1035
ag291
((ltRp1036
ag291
((ltRp1037
ag291
((ltRp1038
ag291
((ltRp1039
ag291
((ltRp1040
ag291
((ltRp1041
ag291
((ltRp1042
ag291
((ltRp1043
ag291
((ltRp1044
ag291
((ltRp1045
ag291
((ltRp1046
ag291
((ltRp1047
ag291
((ltRp1048
ag291
((ltRp1049
ag291
((ltRp1050
ag291
((lp1051
g1022
ag276
(g312
g278
NtRp1052
(dp1053
g315
S'1'
sg316
I21
sbag1024
ag276
(g312
g278
NtRp1054
(dp1055
g315
S'0'
sg316
I44
sbatRp1056
ag291
((ltRp1057
ag291
((ltRp1058
ag291
((ltRp1059
ag291
((ltRp1060
ag291
((ltRp1061
ag291
((ltRp1062
ag291
((ltRp1063
ag291
((ltRp1064
ag291
((ltRp1065
ag291
((ltRp1066
ag291
((ltRp1067
ag291
((ltRp1068
ag291
((ltRp1069
ag291
((ltRp1070
ag291
((ltRp1071
ag291
((ltRp1072
ag291
((ltRp1073
ag291
((ltRp1074
ag291
((ltRp1075
ag291
((ltRp1076
ag291
((ltRp1077
ag291
((ltRp1078
ag291
((ltRp1079
ag291
((lp1080
g276
(g312
g278
NtRp1081
(dp1082
g315
S'0'
sg316
I42
sbag276
(g312
g278
NtRp1083
(dp1084
g315
S'1'
sg316
I19
sbatRp1085
ag291
((lp1086
g1083
ag276
(g312
g278
NtRp1087
(dp1088
g315
S'1'
sg316
I20
sbag1052
ag1081
ag276
(g312
g278
NtRp1089
(dp1090
g315
S'0'
sg316
I43
sbag1054
atRp1091
ag291
((ltRp1092
ag291
((ltRp1093
ag291
((ltRp1094
ag291
((ltRp1095
ag291
((ltRp1096
ag291
((ltRp1097
ag291
((ltRp1098
ag291
((ltRp1099
ag291
((ltRp1100
ag291
((ltRp1101
ag291
((ltRp1102
ag291
((ltRp1103
ag291
((ltRp1104
ag291
((ltRp1105
ag291
((ltRp1106
ag291
((ltRp1107
ag291
((ltRp1108
ag291
((ltRp1109
ag291
((ltRp1110
ag291
((ltRp1111
ag291
((ltRp1112
ag291
((ltRp1113
ag291
((ltRp1114
ag291
((lp1115
g276
(g312
g278
NtRp1116
(dp1117
g315
S'1'
sg316
I18
sbag1083
ag276
(g312
g278
NtRp1118
(dp1119
g315
S'0'
sg316
I41
sbag1081
atRp1120
ag291
((lp1121
g1081
ag1083
atRp1122
ag291
((ltRp1123
ag291
((ltRp1124
ag291
((ltRp1125
ag291
((ltRp1126
ag291
((ltRp1127
ag291
((ltRp1128
ag291
((ltRp1129
ag291
((ltRp1130
ag291
((ltRp1131
ag291
((ltRp1132
ag291
((ltRp1133
ag291
((ltRp1134
ag291
((ltRp1135
ag291
((ltRp1136
ag291
((ltRp1137
ag291
((ltRp1138
ag291
((ltRp1139
ag291
((ltRp1140
ag291
((ltRp1141
ag291
((ltRp1142
ag291
((ltRp1143
ag291
((ltRp1144
ag291
((lp1145
g276
(g312
g278
NtRp1146
(dp1147
g315
S'1'
sg316
I17
sbag276
(g312
g278
NtRp1148
(dp1149
g315
S'0'
sg316
I40
sbatRp1150
ag291
((lp1151
g1146
ag1116
ag1118
ag1148
atRp1152
ag291
((ltRp1153
ag291
((ltRp1154
ag291
((ltRp1155
ag291
((ltRp1156
ag291
((ltRp1157
ag291
((ltRp1158
ag291
((ltRp1159
ag291
((ltRp1160
ag291
((ltRp1161
ag291
((ltRp1162
ag291
((ltRp1163
ag291
((ltRp1164
ag291
((ltRp1165
ag291
((ltRp1166
ag291
((ltRp1167
ag291
((ltRp1168
ag291
((ltRp1169
ag291
((ltRp1170
ag291
((ltRp1171
ag291
((ltRp1172
ag291
((ltRp1173
ag291
((ltRp1174
ag291
((ltRp1175
ag291
((lp1176
g276
(g312
g278
NtRp1177
(dp1178
g315
S'1'
sg316
I16
sbag1146
ag276
(g312
g278
NtRp1179
(dp1180
g315
S'0'
sg316
I38
sbag276
(g312
g278
NtRp1181
(dp1182
g315
S'0'
sg316
I39
sbag1148
ag276
(g312
g278
NtRp1183
(dp1184
g315
S'1'
sg316
I15
sbatRp1185
ag291
((lp1186
g1146
ag1148
atRp1187
ag291
((ltRp1188
ag291
((ltRp1189
ag291
((ltRp1190
ag291
((ltRp1191
ag291
((ltRp1192
ag291
((ltRp1193
ag291
((ltRp1194
ag291
((ltRp1195
ag291
((ltRp1196
ag291
((ltRp1197
ag291
((ltRp1198
ag291
((ltRp1199
ag291
((ltRp1200
ag291
((ltRp1201
ag291
((lp1202
g276
(g312
g278
NtRp1203
(dp1204
g315
S'1'
sg316
I0
sbag276
(g312
g278
NtRp1205
(dp1206
g315
S'1'
sg316
I1
sbag276
(g312
g278
NtRp1207
(dp1208
g315
S'0'
sg316
I0
sbatRp1209
ag291
((lp1210
g1205
atRp1211
ag291
((ltRp1212
ag291
((ltRp1213
ag291
((ltRp1214
ag291
((ltRp1215
ag291
((ltRp1216
ag291
((ltRp1217
ag291
((lp1218
g276
(g312
g278
NtRp1219
(dp1220
g315
S'0'
sg316
I37
sbag276
(g312
g278
NtRp1221
(dp1222
g315
S'1'
sg316
I14
sbatRp1223
ag291
((lp1224
g1179
ag1219
ag1221
ag1183
atRp1225
ag291
((ltRp1226
ag291
((ltRp1227
ag291
((ltRp1228
ag291
((ltRp1229
ag291
((ltRp1230
ag291
((ltRp1231
ag291
((ltRp1232
ag291
((ltRp1233
ag291
((ltRp1234
ag291
((ltRp1235
ag291
((ltRp1236
ag291
((ltRp1237
ag291
((ltRp1238
ag291
((ltRp1239
ag291
((ltRp1240
ag291
((lp1241
g1205
ag1207
ag276
(g312
g278
NtRp1242
(dp1243
g315
S'0'
sg316
I1
sbag276
(g312
g278
NtRp1244
(dp1245
g315
S'0'
sg316
I2
sbag276
(g312
g278
NtRp1246
(dp1247
g315
S'0'
sg316
I3
sbag276
(g312
g278
NtRp1248
(dp1249
g315
S'0'
sg316
I4
sbag276
(g312
g278
NtRp1250
(dp1251
g315
S'0'
sg316
I5
sbag276
(g312
g278
NtRp1252
(dp1253
g315
S'0'
sg316
I6
sbag276
(g312
g278
NtRp1254
(dp1255
g315
S'0'
sg316
I7
sbag276
(g312
g278
NtRp1256
(dp1257
g315
S'0'
sg316
I8
sbag276
(g312
g278
NtRp1258
(dp1259
g315
S'0'
sg316
I9
sbag276
(g312
g278
NtRp1260
(dp1261
g315
S'0'
sg316
I10
sbag276
(g312
g278
NtRp1262
(dp1263
g315
S'0'
sg316
I11
sbag276
(g312
g278
NtRp1264
(dp1265
g315
S'0'
sg316
I12
sbag276
(g312
g278
NtRp1266
(dp1267
g315
S'0'
sg316
I13
sbag276
(g312
g278
NtRp1268
(dp1269
g315
S'0'
sg316
I14
sbag276
(g312
g278
NtRp1270
(dp1271
g315
S'0'
sg316
I15
sbag276
(g312
g278
NtRp1272
(dp1273
g315
S'0'
sg316
I16
sbag276
(g312
g278
NtRp1274
(dp1275
g315
S'0'
sg316
I17
sbag276
(g312
g278
NtRp1276
(dp1277
g315
S'0'
sg316
I18
sbag276
(g312
g278
NtRp1278
(dp1279
g315
S'0'
sg316
I19
sbag276
(g312
g278
NtRp1280
(dp1281
g315
S'0'
sg316
I20
sbatRp1282
ag291
((lp1283
g1280
ag276
(g312
g278
NtRp1284
(dp1285
g315
S'0'
sg316
I21
sbag276
(g312
g278
NtRp1286
(dp1287
g315
S'0'
sg316
I22
sbag276
(g312
g278
NtRp1288
(dp1289
g315
S'0'
sg316
I23
sbag276
(g312
g278
NtRp1290
(dp1291
g315
S'0'
sg316
I24
sbag276
(g312
g278
NtRp1292
(dp1293
g315
S'0'
sg316
I25
sbag276
(g312
g278
NtRp1294
(dp1295
g315
S'0'
sg316
I26
sbag276
(g312
g278
NtRp1296
(dp1297
g315
S'0'
sg316
I27
sbag276
(g312
g278
NtRp1298
(dp1299
g315
S'0'
sg316
I28
sbag276
(g312
g278
NtRp1300
(dp1301
g315
S'0'
sg316
I29
sbag1205
ag276
(g312
g278
NtRp1302
(dp1303
g315
S'1'
sg316
I2
sbag276
(g312
g278
NtRp1304
(dp1305
g315
S'1'
sg316
I3
sbag276
(g312
g278
NtRp1306
(dp1307
g315
S'1'
sg316
I4
sbag276
(g312
g278
NtRp1308
(dp1309
g315
S'1'
sg316
I5
sbag276
(g312
g278
NtRp1310
(dp1311
g315
S'1'
sg316
I6
sbatRp1312
ag291
((lp1313
g1300
ag1310
atRp1314
ag291
((lp1315
g276
(g312
g278
NtRp1316
(dp1317
g315
S'0'
sg316
I30
sbag1300
ag1310
ag276
(g312
g278
NtRp1318
(dp1319
g315
S'1'
sg316
I7
sbatRp1320
ag291
((lp1321
g1316
ag1318
atRp1322
ag291
((lp1323
g1316
ag1318
atRp1324
ag291
((ltRp1325
ag291
((lp1326
g276
(g312
g278
NtRp1327
(dp1328
g315
S'0'
sg316
I34
sbag276
(g312
g278
NtRp1329
(dp1330
g315
S'1'
sg316
I11
sbatRp1331
ag291
((lp1332
g1327
ag276
(g312
g278
NtRp1333
(dp1334
g315
S'0'
sg316
I35
sbag276
(g312
g278
NtRp1335
(dp1336
g315
S'0'
sg316
I36
sbag1219
ag1329
ag276
(g312
g278
NtRp1337
(dp1338
g315
S'1'
sg316
I12
sbag276
(g312
g278
NtRp1339
(dp1340
g315
S'1'
sg316
I13
sbag1221
atRp1341
ag291
((lp1342
g1219
ag1221
atRp1343
ag291
((ltRp1344
ag291
((ltRp1345
ag291
((ltRp1346
ag291
((ltRp1347
ag291
((ltRp1348
ag291
((ltRp1349
ag291
((ltRp1350
ag291
((ltRp1351
ag291
((ltRp1352
ag291
((ltRp1353
ag291
((ltRp1354
ag291
((ltRp1355
ag291
((ltRp1356
ag291
((ltRp1357
ag291
((ltRp1358
ag291
((ltRp1359
ag291
((ltRp1360
ag291
((ltRp1361
ag291
((lp1362
g1316
ag1318
atRp1363
ag291
((lp1364
g1316
ag1318
atRp1365
ag291
((lp1366
g276
(g312
g278
NtRp1367
(dp1368
g315
S'1'
sg316
I8
sbag276
(g312
g278
NtRp1369
(dp1370
g315
S'0'
sg316
I31
sbag1316
ag1318
atRp1371
ag291
((lp1372
g1367
ag276
(g312
g278
NtRp1373
(dp1374
g315
S'1'
sg316
I9
sbag1369
ag276
(g312
g278
NtRp1375
(dp1376
g315
S'0'
sg316
I32
sbatRp1377
ag291
((lp1378
g1375
ag276
(g312
g278
NtRp1379
(dp1380
g315
S'0'
sg316
I33
sbag1327
ag1373
ag276
(g312
g278
NtRp1381
(dp1382
g315
S'1'
sg316
I10
sbag1329
atRp1383
ag291
((lp1384
g1327
ag1329
atRp1385
ag291
((ltRp1386
ag291
((ltRp1387
ag291
((ltRp1388
ag291
((ltRp1389
ag291
((ltRp1390
ag291
((ltRp1391
ag291
((ltRp1392
ag291
((ltRp1393
ag291
((ltRp1394
ag291
((ltRp1395
ag291
((ltRp1396
ag291
((ltRp1397
ag291
((ltRp1398
ag291
((ltRp1399
ag291
((ltRp1400
ag291
((ltRp1401
asS'si_gridsquaresys'
p1402
g276
(cgrid
GridSquareSystem
p1403
g278
NtRp1404
(dp1405
S'lngstep'
p1406
F0.00125
sS'southwest_gridsquare'
p1407
g276
(cgrid
GridSquare
p1408
g278
NtRp1409
(dp1410
S'sys'
p1411
g1404
sS'gridlat'
p1412
I33
sS'gridlng'
p1413
I-16
sbsS'lngref'
p1414
F-79.457939102255295
sS'latstep'
p1415
F0.00087500000000000002
sS'latref'
p1416
F43.626966968592633
sS'northeast_gridsquare'
p1417
g276
(g1408
g278
NtRp1418
(dp1419
g1411
g1404
sg1412
I63
sg1413
I8
sbsbsS'si_plinename_to_gridsquareidxes'
p1420
(dp1421
S'1'
g291
((lp1422
I512
aI684
aI173
aI19
aI20
aI21
aI22
aI536
aI44
aI45
aI46
aI47
aI48
aI561
aI73
aI74
aI610
aI611
aI98
aI99
aI122
aI123
aI124
aI659
aI660
aI709
aI172
aI685
aI700
aI701
aI708
aI197
aI725
aI726
aI727
aI728
aI729
aI730
aI732
aI221
aI222
aI635
aI636
aI295
aI753
aI754
aI755
aI756
aI757
aI246
aI247
aI271
aI272
aI49
aI296
aI297
aI733
aI734
aI320
aI321
aI345
aI369
aI370
aI147
aI148
aI394
aI395
aI412
aI413
aI414
aI415
aI416
aI417
aI418
aI419
aI420
aI436
aI437
aI438
aI586
aI758
aI461
aI462
aI486
aI487
aI511
atRp1423
sS'0'
g291
((lp1424
I512
aI45
aI98
aI172
aI394
aI395
aI271
aI222
aI659
aI660
aI21
aI22
aI345
aI536
aI20
aI47
aI412
aI413
aI414
aI415
aI416
aI417
aI418
aI419
aI420
aI369
aI296
aI297
aI147
aI197
aI684
aI685
aI46
aI221
aI48
aI561
aI436
aI437
aI438
aI700
aI74
aI320
aI321
aI49
aI708
aI709
aI123
aI73
aI586
aI461
aI462
aI173
aI99
aI725
aI726
aI727
aI728
aI729
aI730
aI732
aI733
aI734
aI19
aI246
aI610
aI611
aI486
aI487
aI124
aI295
aI44
aI370
aI272
aI753
aI754
aI755
aI756
aI757
aI758
aI247
aI148
aI122
aI635
aI636
aI511
atRp1425
ssbsS'version'
p1426
I0
sS'datazoom_to_dir_to_routeptaddr_to_mofr'
p1427
(dp1428
I0
(lp1429
(lp1430
I0
aI794
aI1407
aI2091
aI2432
aI2841
aI4396
aI4927
aa(lp1431
I0
aI794
aI1407
aI2091
aI2432
aI2841
aI4396
aI4927
aasN(lp1432
(lp1433
I0
aF2.6618731201580901
aF5.306258085755891
aF7.9681310350892929
aF10.612515432419874
aF13.158843337982368
aF15.923212439491165
aF18.674426591325698
aF21.438795099278956
aF24.190009073817304
aF26.954376988581707
aF29.705590785260608
aF32.469958107350763
aF35.221171727281032
aF37.985538456180294
aF40.736751899780792
aF43.501118037035042
aF46.252331301393163
aF48.907526865524581
aF51.687828663437124
aF54.465735963911115
aF57.246037130648588
aF60.023943907689862
aF62.804244447338526
aF65.582150699314383
aF68.362450610881481
aF71.140356339034668
aF73.92065562152743
aF76.698560822982458
aF79.375877748521816
aF293.69314591014256
aF471.24537098968693
aF575.27715292964854
aF671.6143596458777
aF699.18693701592338
aF794.85345540412027
aF809.59996178739334
aF862.48988291223623
aF973.9835503504803
aF1037.1037102874136
aF1076.4541379913298
aF1141.6611165272741
aF1255.6851197951664
aF1407.1842369992498
aF1424.0934965668137
aF1471.4717216429517
aF1595.7786527779665
aF1728.3762118079824
aF1770.3175702750511
aF1834.6364845455951
aF2091.2126570156438
aF2223.7747573559291
aF2311.7312766295227
aF2411.5735825475463
aF2432.4330859209208
aF2457.0465571238237
aF2532.2489329452492
aF2638.2583431363187
aF2683.7718823251503
aF2745.0024639358585
aF2841.0286507209976
aF2927.105024036845
aF3098.3546428422983
aF3258.6601539093558
aF3397.5322407936269
aF3749.2650906393237
aF3934.578694295396
aF4109.3442356876312
aF4347.239087431496
aF4396.6506747378426
aF4607.0980509495048
aF4793.310117735633
aF4850.3286926596966
aF4927.5334549034806
aa(lp1434
I0
aF11.87156450005879
aF27.472109679887463
aF37.396330641212941
aF48.816503812548511
aF63.809954212992672
aF79.375416307350946
aF293.69268446897172
aF471.24490954851609
aF575.2766914884777
aF671.61389820470686
aF699.18647557475254
aF794.85299396294943
aF809.59950034622261
aF862.4894214710655
aF973.98308890930957
aF1037.1032488462429
aF1076.4536765501589
aF1141.6606550861031
aF1255.6846583539955
aF1407.1837755580789
aF1424.0930351256427
aF1471.4712602017808
aF1595.7781913367955
aF1728.3757503668114
aF1770.3171088338802
aF1834.6360231044241
aF2091.2121955744728
aF2223.7742959147581
aF2311.7308151883517
aF2411.5731211063753
aF2432.4326244797498
aF2457.0460956826528
aF2532.2484715040782
aF2638.2578816951477
aF2683.7714208839793
aF2745.0020024946875
aF2841.0281892798266
aF2927.104562595674
aF3098.3541814011273
aF3258.6596924681849
aF3397.5317793524559
aF3749.2646291981528
aF3934.578232854225
aF4109.3437742464612
aF4347.238625990326
aF4396.6502132966725
aF4607.0975895083347
aF4793.3096562944629
aF4850.3282312185265
aF4927.5329934623105
aasI2
(lp1435
(lp1436
I0
aI13
aI48
aI79
aI471
aI671
aI699
aI794
aI1076
aI1141
aI1407
aI2091
aI2432
aI2638
aI2841
aI4396
aI4793
aI4850
aI4927
aa(lp1437
I0
aI27
aI79
aI471
aI671
aI699
aI794
aI1076
aI1141
aI1407
aI2091
aI2432
aI2638
aI2841
aI4396
aI4793
aI4850
aI4927
aasI3
(lp1438
(lp1439
I0
aI13
aI48
aI79
aI471
aI575
aI671
aI699
aI794
aI809
aI862
aI1037
aI1076
aI1141
aI1255
aI1407
aI1424
aI1471
aI1728
aI1834
aI2091
aI2223
aI2311
aI2411
aI2432
aI2457
aI2638
aI2745
aI2841
aI3749
aI3934
aI4109
aI4396
aI4607
aI4793
aI4850
aI4927
aa(lp1440
I0
aI11
aI27
aI37
aI48
aI63
aI79
aI471
aI575
aI671
aI699
aI794
aI809
aI862
aI1037
aI1076
aI1141
aI1255
aI1407
aI1424
aI1471
aI1728
aI1834
aI2091
aI2223
aI2311
aI2411
aI2432
aI2457
aI2638
aI2745
aI2841
aI3749
aI3934
aI4109
aI4396
aI4607
aI4793
aI4850
aI4927
aasI1
(lp1441
(lp1442
I0
aI79
aI471
aI671
aI794
aI1076
aI1407
aI2091
aI2432
aI2841
aI4396
aI4793
aI4850
aI4927
aa(lp1443
I0
aI79
aI471
aI671
aI794
aI1076
aI1407
aI2091
aI2432
aI2841
aI4396
aI4793
aI4850
aI4927
aassb.