(iroutes
RouteInfo
p1
(dp2
S'is_split_by_dir'
p3
I01
sS'name'
p4
S'harbourfront'
p5
sS'datazoom_to_dir_to_routepts'
p6
(dp7
I0
(dp8
I0
(lp9
(igeom
LatLng
p10
(dp11
S'lat'
p12
F43.635845000000003
sS'lng'
p13
F-79.418355000000005
sba(igeom
LatLng
p14
(dp15
g12
F43.636997000000001
sg13
F-79.412413999999998
sba(igeom
LatLng
p16
(dp17
g12
F43.635919999999999
sg13
F-79.404088999999999
sba(igeom
LatLng
p18
(dp19
g12
F43.636572000000001
sg13
F-79.399803000000006
sba(igeom
LatLng
p20
(dp21
g12
F43.635767999999999
sg13
F-79.398321999999993
sba(igeom
LatLng
p22
(dp23
g12
F43.637208999999999
sg13
F-79.394904999999994
sba(igeom
LatLng
p24
(dp25
g12
F43.639902999999997
sg13
F-79.380484999999993
sba(igeom
LatLng
p26
(dp27
g12
F43.641280999999999
sg13
F-79.376853999999994
sba(igeom
LatLng
p28
(dp29
g12
F43.645819000000003
sg13
F-79.378983000000005
sbasI1
(lp30
(igeom
LatLng
p31
(dp32
g12
F43.635845000000003
sg13
F-79.418355000000005
sba(igeom
LatLng
p33
(dp34
g12
F43.637301999999998
sg13
F-79.413471000000001
sba(igeom
LatLng
p35
(dp36
g12
F43.636277
sg13
F-79.410563999999994
sba(igeom
LatLng
p37
(dp38
g12
F43.635916000000002
sg13
F-79.403621999999999
sba(igeom
LatLng
p39
(dp40
g12
F43.636580000000002
sg13
F-79.399957999999998
sba(igeom
LatLng
p41
(dp42
g12
F43.635767999999999
sg13
F-79.398321999999993
sba(igeom
LatLng
p43
(dp44
g12
F43.637208999999999
sg13
F-79.394904999999994
sba(igeom
LatLng
p45
(dp46
g12
F43.639902999999997
sg13
F-79.380484999999993
sba(igeom
LatLng
p47
(dp48
g12
F43.641280999999999
sg13
F-79.376853999999994
sba(igeom
LatLng
p49
(dp50
g12
F43.645819000000003
sg13
F-79.378983000000005
sbassN(dp51
I0
(lp52
g10
a(igeom
LatLng
p53
(dp54
g12
F43.635826999999999
sg13
F-79.418374
sba(igeom
LatLng
p55
(dp56
g12
F43.635679000000003
sg13
F-79.418278000000001
sba(igeom
LatLng
p57
(dp58
g12
F43.635648000000003
sg13
F-79.417976999999993
sba(igeom
LatLng
p59
(dp60
g12
F43.636063999999998
sg13
F-79.416584999999998
sba(igeom
LatLng
p61
(dp62
g12
F43.636988000000002
sg13
F-79.413213999999996
sbag14
a(igeom
LatLng
p63
(dp64
g12
F43.636960000000002
sg13
F-79.412301999999997
sba(igeom
LatLng
p65
(dp66
g12
F43.636893999999998
sg13
F-79.412114000000003
sba(igeom
LatLng
p67
(dp68
g12
F43.636761999999997
sg13
F-79.411921000000007
sba(igeom
LatLng
p69
(dp70
g12
F43.636634000000001
sg13
F-79.411771000000002
sba(igeom
LatLng
p71
(dp72
g12
F43.636567999999997
sg13
F-79.411653000000001
sba(igeom
LatLng
p73
(dp74
g12
F43.636277
sg13
F-79.410563999999994
sba(igeom
LatLng
p75
(dp76
g12
F43.636246
sg13
F-79.410199000000006
sba(igeom
LatLng
p77
(dp78
g12
F43.636229999999998
sg13
F-79.409640999999993
sba(igeom
LatLng
p79
(dp80
g12
F43.636335000000003
sg13
F-79.408348000000004
sba(igeom
LatLng
p81
(dp82
g12
F43.636381999999998
sg13
F-79.407570000000007
sba(igeom
LatLng
p83
(dp84
g12
F43.636355000000002
sg13
F-79.406615000000002
sba(igeom
LatLng
p85
(dp86
g12
F43.636280999999997
sg13
F-79.405992999999995
sba(igeom
LatLng
p87
(dp88
g12
F43.636074999999998
sg13
F-79.404910000000001
sba(igeom
LatLng
p89
(dp90
g12
F43.635955000000003
sg13
F-79.404420999999999
sbag16
a(igeom
LatLng
p91
(dp92
g12
F43.635916000000002
sg13
F-79.403621999999999
sba(igeom
LatLng
p93
(dp94
g12
F43.635966000000003
sg13
F-79.403026999999994
sba(igeom
LatLng
p95
(dp96
g12
F43.636032
sg13
F-79.402253999999999
sba(igeom
LatLng
p97
(dp98
g12
F43.636082999999999
sg13
F-79.401836000000003
sba(igeom
LatLng
p99
(dp100
g12
F43.636203000000002
sg13
F-79.401180999999994
sba(igeom
LatLng
p101
(dp102
g12
F43.636319999999998
sg13
F-79.400762999999998
sba(igeom
LatLng
p103
(dp104
g12
F43.636521999999999
sg13
F-79.400146000000007
sba(igeom
LatLng
p105
(dp106
g12
F43.636580000000002
sg13
F-79.399957999999998
sbag18
a(igeom
LatLng
p107
(dp108
g12
F43.636479000000001
sg13
F-79.399642
sba(igeom
LatLng
p109
(dp110
g12
F43.636324000000002
sg13
F-79.399534000000003
sba(igeom
LatLng
p111
(dp112
g12
F43.636192000000001
sg13
F-79.399356999999995
sba(igeom
LatLng
p113
(dp114
g12
F43.635939
sg13
F-79.398777999999993
sba(igeom
LatLng
p115
(dp116
g12
F43.635800000000003
sg13
F-79.398444999999995
sbag20
a(igeom
LatLng
p117
(dp118
g12
F43.635795999999999
sg13
F-79.398225999999994
sba(igeom
LatLng
p119
(dp120
g12
F43.635931999999997
sg13
F-79.398015999999998
sba(igeom
LatLng
p121
(dp122
g12
F43.636136999999998
sg13
F-79.397748000000007
sba(igeom
LatLng
p123
(dp124
g12
F43.636451999999998
sg13
F-79.397291999999993
sba(igeom
LatLng
p125
(dp126
g12
F43.636510000000001
sg13
F-79.397174000000007
sba(igeom
LatLng
p127
(dp128
g12
F43.636887000000002
sg13
F-79.396128000000004
sba(igeom
LatLng
p129
(dp130
g12
F43.637045999999998
sg13
F-79.395591999999994
sbag22
a(igeom
LatLng
p131
(dp132
g12
F43.637301999999998
sg13
F-79.394330999999994
sba(igeom
LatLng
p133
(dp134
g12
F43.637394999999998
sg13
F-79.393536999999995
sba(igeom
LatLng
p135
(dp136
g12
F43.637481000000001
sg13
F-79.392786000000001
sba(igeom
LatLng
p137
(dp138
g12
F43.637706000000001
sg13
F-79.391803999999993
sba(igeom
LatLng
p139
(dp140
g12
F43.638202999999997
sg13
F-79.389443999999997
sba(igeom
LatLng
p141
(dp142
g12
F43.638846999999998
sg13
F-79.386713999999998
sba(igeom
LatLng
p143
(dp144
g12
F43.638959999999997
sg13
F-79.386064000000005
sba(igeom
LatLng
p145
(dp146
g12
F43.639600000000002
sg13
F-79.382362999999998
sbag24
a(igeom
LatLng
p147
(dp148
g12
F43.640016000000003
sg13
F-79.380094
sba(igeom
LatLng
p149
(dp150
g12
F43.640706999999999
sg13
F-79.378039000000001
sba(igeom
LatLng
p151
(dp152
g12
F43.641114000000002
sg13
F-79.376907000000003
sbag26
a(igeom
LatLng
p153
(dp154
g12
F43.642760000000003
sg13
F-79.377465000000001
sba(igeom
LatLng
p155
(dp156
g12
F43.643630000000002
sg13
F-79.377872999999994
sbag28
asI1
(lp157
g31
a(igeom
LatLng
p158
(dp159
g12
F43.636043999999998
sg13
F-79.418149
sba(igeom
LatLng
p160
(dp161
g12
F43.63645703289945
sg13
F-79.416586324950543
sba(igeom
LatLng
p162
(dp163
g12
F43.636882666666665
sg13
F-79.415030333333334
sbag33
a(igeom
LatLng
p164
(dp165
g12
F43.636997000000001
sg13
F-79.412413999999998
sba(igeom
LatLng
p166
(dp167
g12
F43.636960000000002
sg13
F-79.412301999999997
sba(igeom
LatLng
p168
(dp169
g12
F43.636893999999998
sg13
F-79.412114000000003
sba(igeom
LatLng
p170
(dp171
g12
F43.636761999999997
sg13
F-79.411921000000007
sba(igeom
LatLng
p172
(dp173
g12
F43.636634000000001
sg13
F-79.411771000000002
sba(igeom
LatLng
p174
(dp175
g12
F43.636567999999997
sg13
F-79.411653000000001
sbag35
a(igeom
LatLng
p176
(dp177
g12
F43.636246
sg13
F-79.410199000000006
sba(igeom
LatLng
p178
(dp179
g12
F43.636229999999998
sg13
F-79.409640999999993
sba(igeom
LatLng
p180
(dp181
g12
F43.636335000000003
sg13
F-79.408348000000004
sba(igeom
LatLng
p182
(dp183
g12
F43.636381999999998
sg13
F-79.407570000000007
sba(igeom
LatLng
p184
(dp185
g12
F43.636355000000002
sg13
F-79.406615000000002
sba(igeom
LatLng
p186
(dp187
g12
F43.636280999999997
sg13
F-79.405992999999995
sba(igeom
LatLng
p188
(dp189
g12
F43.636074999999998
sg13
F-79.404910000000001
sba(igeom
LatLng
p190
(dp191
g12
F43.635955000000003
sg13
F-79.404420999999999
sba(igeom
LatLng
p192
(dp193
g12
F43.635919999999999
sg13
F-79.404088999999999
sbag37
a(igeom
LatLng
p194
(dp195
g12
F43.635966000000003
sg13
F-79.403026999999994
sba(igeom
LatLng
p196
(dp197
g12
F43.636032
sg13
F-79.402253999999999
sba(igeom
LatLng
p198
(dp199
g12
F43.636082999999999
sg13
F-79.401836000000003
sba(igeom
LatLng
p200
(dp201
g12
F43.636203000000002
sg13
F-79.401180999999994
sba(igeom
LatLng
p202
(dp203
g12
F43.636319999999998
sg13
F-79.400762999999998
sba(igeom
LatLng
p204
(dp205
g12
F43.636521999999999
sg13
F-79.400146000000007
sbag39
a(igeom
LatLng
p206
(dp207
g12
F43.636572000000001
sg13
F-79.399803000000006
sba(igeom
LatLng
p208
(dp209
g12
F43.636479000000001
sg13
F-79.399642
sba(igeom
LatLng
p210
(dp211
g12
F43.636324000000002
sg13
F-79.399534000000003
sba(igeom
LatLng
p212
(dp213
g12
F43.636192000000001
sg13
F-79.399356999999995
sba(igeom
LatLng
p214
(dp215
g12
F43.635939
sg13
F-79.398777999999993
sba(igeom
LatLng
p216
(dp217
g12
F43.635800000000003
sg13
F-79.398444999999995
sbag41
a(igeom
LatLng
p218
(dp219
g12
F43.635795999999999
sg13
F-79.398225999999994
sba(igeom
LatLng
p220
(dp221
g12
F43.635931999999997
sg13
F-79.398015999999998
sba(igeom
LatLng
p222
(dp223
g12
F43.636136999999998
sg13
F-79.397748000000007
sba(igeom
LatLng
p224
(dp225
g12
F43.636451999999998
sg13
F-79.397291999999993
sba(igeom
LatLng
p226
(dp227
g12
F43.636510000000001
sg13
F-79.397174000000007
sba(igeom
LatLng
p228
(dp229
g12
F43.636887000000002
sg13
F-79.396128000000004
sba(igeom
LatLng
p230
(dp231
g12
F43.637045999999998
sg13
F-79.395591999999994
sbag43
a(igeom
LatLng
p232
(dp233
g12
F43.637301999999998
sg13
F-79.394330999999994
sba(igeom
LatLng
p234
(dp235
g12
F43.637394999999998
sg13
F-79.393536999999995
sba(igeom
LatLng
p236
(dp237
g12
F43.637481000000001
sg13
F-79.392786000000001
sba(igeom
LatLng
p238
(dp239
g12
F43.637706000000001
sg13
F-79.391803999999993
sba(igeom
LatLng
p240
(dp241
g12
F43.638202999999997
sg13
F-79.389443999999997
sba(igeom
LatLng
p242
(dp243
g12
F43.638846999999998
sg13
F-79.386713999999998
sba(igeom
LatLng
p244
(dp245
g12
F43.638959999999997
sg13
F-79.386064000000005
sba(igeom
LatLng
p246
(dp247
g12
F43.639600000000002
sg13
F-79.382362999999998
sbag45
a(igeom
LatLng
p248
(dp249
g12
F43.640016000000003
sg13
F-79.380094
sba(igeom
LatLng
p250
(dp251
g12
F43.640706999999999
sg13
F-79.378039000000001
sba(igeom
LatLng
p252
(dp253
g12
F43.641114000000002
sg13
F-79.376907000000003
sbag47
a(igeom
LatLng
p254
(dp255
g12
F43.642760000000003
sg13
F-79.377465000000001
sba(igeom
LatLng
p256
(dp257
g12
F43.643630000000002
sg13
F-79.377872999999994
sbag49
assI2
(dp258
I0
(lp259
g10
ag55
ag57
ag61
ag14
ag65
ag71
ag73
ag77
ag81
ag83
ag16
ag97
ag18
ag111
ag20
ag125
ag127
ag22
ag135
ag141
ag24
ag151
ag26
ag155
ag28
asI1
(lp260
g31
ag158
ag33
ag168
ag174
ag35
ag178
ag182
ag184
ag190
ag37
ag198
ag200
ag39
ag208
ag212
ag41
ag226
ag228
ag43
ag236
ag242
ag45
ag252
ag47
ag256
ag49
assI3
(dp261
I0
(lp262
g10
ag53
ag55
ag57
ag59
ag61
ag14
ag65
ag67
ag69
ag71
ag73
ag75
ag77
ag79
ag81
ag83
ag85
ag87
ag89
ag16
ag91
ag95
ag97
ag99
ag101
ag105
ag18
ag107
ag109
ag111
ag115
ag20
ag117
ag123
ag125
ag127
ag129
ag22
ag131
ag135
ag137
ag139
ag141
ag145
ag24
ag147
ag149
ag151
ag26
ag153
ag155
ag28
asI1
(lp263
g31
ag158
ag33
ag164
ag168
ag170
ag172
ag174
ag35
ag176
ag178
ag180
ag182
ag184
ag186
ag188
ag190
ag192
ag37
ag196
ag198
ag200
ag202
ag39
ag206
ag208
ag210
ag212
ag216
ag41
ag218
ag224
ag226
ag228
ag230
ag43
ag232
ag236
ag238
ag240
ag242
ag246
ag45
ag248
ag250
ag252
ag47
ag254
ag256
ag49
assI1
(dp264
I0
(lp265
g10
ag57
ag14
ag73
ag83
ag16
ag18
ag20
ag125
ag22
ag24
ag26
ag28
asI1
(lp266
g31
ag33
ag35
ag184
ag37
ag39
ag41
ag226
ag43
ag45
ag47
ag49
asssS'snapgraph'
p267
ccopy_reg
_reconstructor
p268
(csnapgraph
SnapGraph
p269
c__builtin__
object
p270
NtRp271
(dp272
S'use_vert_only_floyd_warshall'
p273
I00
sS'plinename2pts'
p274
(dp275
S'1'
g157
sS'0'
g52
ssg4
NsS'use_floyd_warshall'
p276
I00
sS'plinename_to_ptidx_to_mapl'
p277
(dp278
S'1'
(lp279
I0
aF27.63365410883268
aF161.44031381232153
aF295.23001690241517
aF429.02485795268876
aF520.54698794652415
aF530.44923217855933
aF547.25512463784059
aF568.6129975883207
aF587.26517492892106
aF599.25991220602225
aF692.62835887426945
aF722.18704768306361
aF767.1026508854975
aF871.7522218253763
aF934.54488614128263
aF1011.4147304521491
aF1062.1140602461871
aF1152.1789038168279
aF1193.7091370831706
aF1220.6941014227104
aF1258.2581209769212
aF1306.4362025471953
aF1369.040625004835
aF1403.135202559454
aF1457.4791854793966
aF1493.5260308637778
aF1547.9930534889861
aF1564.4304855015694
aF1576.9288527733322
aF1593.4970134627622
aF1612.788889792879
aF1633.2306649165866
aF1687.6298318273502
aF1718.5488690201571
aF1729.0617019111933
aF1737.3865489139416
aF1760.0520884667733
aF1791.4156233623007
aF1842.1170966333004
aF1853.5897759417228
aF1947.5749914716757
aF1994.1661851730316
aF2052.3148948204416
aF2099.6241510725308
aF2164.3159756699301
aF2225.4697678801881
aF2308.3147239672703
aF2505.9988553045637
aF2736.9365188045081
aF2790.7014009652462
aF3096.7403997440356
aF3251.4887126498779
aF3285.3499896477265
aF3467.5932986551938
aF3569.2507688958904
aF3588.293150002954
aF3759.8466876519751
aF3861.9482587656689
aF4121.0786724151221
asS'0'
(lp280
I0
aF2.5173297420226044
aF20.687250676860554
aF45.141051735677053
aF166.27099202668558
aF456.19611228939323
aF520.54772720331982
aF530.449971435355
aF547.25586389463626
aF568.61373684511636
aF587.26591418571672
aF599.26065146281792
aF692.62909813106512
aF722.18778693985928
aF767.10339014229316
aF871.75296108217196
aF934.5456253980783
aF1011.4154697089448
aF1062.1147995029828
aF1152.1796430736235
aF1193.7098763399663
aF1220.6948406795061
aF1258.2588602337169
aF1306.436941803991
aF1369.0413642616306
aF1403.1359418162497
aF1457.4799247361923
aF1493.5267701205735
aF1547.9937927457818
aF1564.431224758365
aF1576.9295920301279
aF1593.4977527195579
aF1612.7896290496747
aF1633.2314041733823
aF1687.6305710841459
aF1718.5496082769528
aF1729.0624411679889
aF1737.3872881707373
aF1760.052827723569
aF1791.4163626190964
aF1842.1178358900961
aF1853.5905151985185
aF1947.5757307284714
aF1994.1669244298273
aF2052.3156340772375
aF2099.6248903293267
aF2164.316714926726
aF2225.470507136984
aF2308.3154632240662
aF2505.9995945613596
aF2736.937258061304
aF2790.7021402220421
aF3096.7411390008315
aF3251.4894519066738
aF3285.3507289045224
aF3467.5940379119897
aF3569.2515081526863
aF3588.2938892597499
aF3759.847426908771
aF3861.9489980224648
aF4121.079411671918
assS'si_linesegaddrs_by_gridsquareidx'
p281
(lp282
c__builtin__
set
p283
((lp284
g268
(csnapgraph
PtAddr
p285
g270
NtRp286
(dp287
S'plinename'
p288
S'0'
sS'ptidx'
p289
I1
sbag268
(g285
g270
NtRp290
(dp291
g288
S'0'
sg289
I2
sbag268
(g285
g270
NtRp292
(dp293
g288
S'0'
sg289
I3
sbatRp294
ag283
((lp295
g292
atRp296
ag283
((lp297
g292
atRp298
ag283
((ltRp299
ag283
((ltRp300
ag283
((ltRp301
ag283
((ltRp302
ag283
((ltRp303
ag283
((ltRp304
ag283
((ltRp305
ag283
((ltRp306
ag283
((ltRp307
ag283
((ltRp308
ag283
((ltRp309
ag283
((ltRp310
ag283
((ltRp311
ag283
((ltRp312
ag283
((ltRp313
ag283
((ltRp314
ag283
((ltRp315
ag283
((ltRp316
ag283
((ltRp317
ag283
((ltRp318
ag283
((ltRp319
ag283
((ltRp320
ag283
((ltRp321
ag283
((ltRp322
ag283
((ltRp323
ag283
((ltRp324
ag283
((ltRp325
ag283
((ltRp326
ag283
((ltRp327
ag283
((ltRp328
ag283
((ltRp329
ag283
((lp330
g268
(g285
g270
NtRp331
(dp332
g288
S'1'
sg289
I0
sbag268
(g285
g270
NtRp333
(dp334
g288
S'1'
sg289
I1
sbag286
ag292
ag268
(g285
g270
NtRp335
(dp336
g288
S'0'
sg289
I0
sbatRp337
ag283
((lp338
g333
ag292
atRp339
ag283
((lp340
g333
ag268
(g285
g270
NtRp341
(dp342
g288
S'1'
sg289
I2
sbag292
ag268
(g285
g270
NtRp343
(dp344
g288
S'0'
sg289
I4
sbatRp345
ag283
((lp346
g341
ag343
atRp347
ag283
((lp348
g343
atRp349
ag283
((lp350
g268
(g285
g270
NtRp351
(dp352
g288
S'1'
sg289
I9
sbag268
(g285
g270
NtRp353
(dp354
g288
S'0'
sg289
I10
sbatRp355
ag283
((lp356
g268
(g285
g270
NtRp357
(dp358
g288
S'1'
sg289
I11
sbag351
ag268
(g285
g270
NtRp359
(dp360
g288
S'1'
sg289
I10
sbag353
ag268
(g285
g270
NtRp361
(dp362
g288
S'0'
sg289
I11
sbag268
(g285
g270
NtRp363
(dp364
g288
S'0'
sg289
I12
sbatRp365
ag283
((lp366
g363
ag357
ag268
(g285
g270
NtRp367
(dp368
g288
S'1'
sg289
I12
sbag268
(g285
g270
NtRp369
(dp370
g288
S'1'
sg289
I13
sbag268
(g285
g270
NtRp371
(dp372
g288
S'0'
sg289
I13
sbag268
(g285
g270
NtRp373
(dp374
g288
S'0'
sg289
I14
sbatRp375
ag283
((lp376
g268
(g285
g270
NtRp377
(dp378
g288
S'0'
sg289
I15
sbag369
ag268
(g285
g270
NtRp379
(dp380
g288
S'1'
sg289
I14
sbag373
atRp381
ag283
((lp382
g377
ag268
(g285
g270
NtRp383
(dp384
g288
S'0'
sg289
I16
sbag379
ag268
(g285
g270
NtRp385
(dp386
g288
S'1'
sg289
I15
sbatRp387
ag283
((lp388
g268
(g285
g270
NtRp389
(dp390
g288
S'1'
sg289
I16
sbag268
(g285
g270
NtRp391
(dp392
g288
S'1'
sg289
I17
sbag268
(g285
g270
NtRp393
(dp394
g288
S'0'
sg289
I17
sbag268
(g285
g270
NtRp395
(dp396
g288
S'0'
sg289
I18
sbag383
ag385
atRp397
ag283
((lp398
g391
ag268
(g285
g270
NtRp399
(dp400
g288
S'1'
sg289
I18
sbag268
(g285
g270
NtRp401
(dp402
g288
S'1'
sg289
I19
sbag268
(g285
g270
NtRp403
(dp404
g288
S'0'
sg289
I19
sbag268
(g285
g270
NtRp405
(dp406
g288
S'0'
sg289
I20
sbag395
atRp407
ag283
((lp408
g401
ag268
(g285
g270
NtRp409
(dp410
g288
S'1'
sg289
I20
sbag268
(g285
g270
NtRp411
(dp412
g288
S'1'
sg289
I21
sbag268
(g285
g270
NtRp413
(dp414
g288
S'0'
sg289
I21
sbag268
(g285
g270
NtRp415
(dp416
g288
S'0'
sg289
I22
sbag268
(g285
g270
NtRp417
(dp418
g288
S'1'
sg289
I22
sbag268
(g285
g270
NtRp419
(dp420
g288
S'0'
sg289
I23
sbag405
atRp421
ag283
((lp422
g417
ag268
(g285
g270
NtRp423
(dp424
g288
S'1'
sg289
I23
sbag268
(g285
g270
NtRp425
(dp426
g288
S'1'
sg289
I24
sbag268
(g285
g270
NtRp427
(dp428
g288
S'0'
sg289
I24
sbag268
(g285
g270
NtRp429
(dp430
g288
S'0'
sg289
I25
sbag419
atRp431
ag283
((lp432
g425
ag268
(g285
g270
NtRp433
(dp434
g288
S'1'
sg289
I25
sbag268
(g285
g270
NtRp435
(dp436
g288
S'1'
sg289
I26
sbag268
(g285
g270
NtRp437
(dp438
g288
S'0'
sg289
I26
sbag268
(g285
g270
NtRp439
(dp440
g288
S'0'
sg289
I27
sbag429
atRp441
ag283
((lp442
g268
(g285
g270
NtRp443
(dp444
g288
S'0'
sg289
I31
sbag439
ag435
ag268
(g285
g270
NtRp445
(dp446
g288
S'1'
sg289
I27
sbag268
(g285
g270
NtRp447
(dp448
g288
S'1'
sg289
I28
sbag268
(g285
g270
NtRp449
(dp450
g288
S'1'
sg289
I29
sbag268
(g285
g270
NtRp451
(dp452
g288
S'1'
sg289
I30
sbag268
(g285
g270
NtRp453
(dp454
g288
S'1'
sg289
I31
sbag268
(g285
g270
NtRp455
(dp456
g288
S'1'
sg289
I32
sbag268
(g285
g270
NtRp457
(dp458
g288
S'0'
sg289
I32
sbag268
(g285
g270
NtRp459
(dp460
g288
S'0'
sg289
I33
sbag268
(g285
g270
NtRp461
(dp462
g288
S'0'
sg289
I29
sbag268
(g285
g270
NtRp463
(dp464
g288
S'0'
sg289
I28
sbag268
(g285
g270
NtRp465
(dp466
g288
S'0'
sg289
I30
sbatRp467
ag283
((lp468
g268
(g285
g270
NtRp469
(dp470
g288
S'0'
sg289
I34
sbag459
ag455
ag268
(g285
g270
NtRp471
(dp472
g288
S'1'
sg289
I33
sbag268
(g285
g270
NtRp473
(dp474
g288
S'1'
sg289
I34
sbag268
(g285
g270
NtRp475
(dp476
g288
S'1'
sg289
I35
sbag268
(g285
g270
NtRp477
(dp478
g288
S'1'
sg289
I36
sbag268
(g285
g270
NtRp479
(dp480
g288
S'1'
sg289
I37
sbag268
(g285
g270
NtRp481
(dp482
g288
S'0'
sg289
I37
sbag268
(g285
g270
NtRp483
(dp484
g288
S'0'
sg289
I38
sbag268
(g285
g270
NtRp485
(dp486
g288
S'0'
sg289
I35
sbag268
(g285
g270
NtRp487
(dp488
g288
S'0'
sg289
I36
sbatRp489
ag283
((lp490
g268
(g285
g270
NtRp491
(dp492
g288
S'1'
sg289
I39
sbag268
(g285
g270
NtRp493
(dp494
g288
S'0'
sg289
I39
sbag479
ag268
(g285
g270
NtRp495
(dp496
g288
S'1'
sg289
I38
sbag483
ag268
(g285
g270
NtRp497
(dp498
g288
S'1'
sg289
I40
sbag268
(g285
g270
NtRp499
(dp500
g288
S'0'
sg289
I40
sbag268
(g285
g270
NtRp501
(dp502
g288
S'0'
sg289
I41
sbatRp503
ag283
((lp504
g497
ag501
atRp505
ag283
((ltRp506
ag283
((ltRp507
ag283
((ltRp508
ag283
((ltRp509
ag283
((ltRp510
ag283
((ltRp511
ag283
((ltRp512
ag283
((ltRp513
ag283
((ltRp514
ag283
((ltRp515
ag283
((ltRp516
ag283
((ltRp517
ag283
((ltRp518
ag283
((ltRp519
ag283
((ltRp520
ag283
((ltRp521
ag283
((ltRp522
ag283
((lp523
g341
ag343
atRp524
ag283
((lp525
g341
ag268
(g285
g270
NtRp526
(dp527
g288
S'1'
sg289
I3
sbag343
atRp528
ag283
((lp529
g526
ag268
(g285
g270
NtRp530
(dp531
g288
S'1'
sg289
I4
sbag343
ag268
(g285
g270
NtRp532
(dp533
g288
S'0'
sg289
I5
sbatRp534
ag283
((lp535
g532
ag268
(g285
g270
NtRp536
(dp537
g288
S'0'
sg289
I6
sbag268
(g285
g270
NtRp538
(dp539
g288
S'0'
sg289
I7
sbag530
ag268
(g285
g270
NtRp540
(dp541
g288
S'1'
sg289
I5
sbag268
(g285
g270
NtRp542
(dp543
g288
S'1'
sg289
I6
sbag268
(g285
g270
NtRp544
(dp545
g288
S'1'
sg289
I7
sbag268
(g285
g270
NtRp546
(dp547
g288
S'1'
sg289
I8
sbag351
ag268
(g285
g270
NtRp548
(dp549
g288
S'0'
sg289
I9
sbag353
ag268
(g285
g270
NtRp550
(dp551
g288
S'0'
sg289
I8
sbatRp552
ag283
((lp553
g351
ag353
atRp554
ag283
((ltRp555
ag283
((ltRp556
ag283
((ltRp557
ag283
((ltRp558
ag283
((ltRp559
ag283
((ltRp560
ag283
((ltRp561
ag283
((ltRp562
ag283
((ltRp563
ag283
((ltRp564
ag283
((lp565
g497
ag501
atRp566
ag283
((lp567
g497
ag268
(g285
g270
NtRp568
(dp569
g288
S'1'
sg289
I41
sbag268
(g285
g270
NtRp570
(dp571
g288
S'1'
sg289
I42
sbag268
(g285
g270
NtRp572
(dp573
g288
S'0'
sg289
I42
sbag268
(g285
g270
NtRp574
(dp575
g288
S'0'
sg289
I43
sbag501
atRp576
ag283
((lp577
g268
(g285
g270
NtRp578
(dp579
g288
S'1'
sg289
I44
sbag570
ag268
(g285
g270
NtRp580
(dp581
g288
S'1'
sg289
I43
sbag574
ag268
(g285
g270
NtRp582
(dp583
g288
S'0'
sg289
I44
sbag268
(g285
g270
NtRp584
(dp585
g288
S'0'
sg289
I45
sbatRp586
ag283
((lp587
g578
ag268
(g285
g270
NtRp588
(dp589
g288
S'1'
sg289
I45
sbag584
ag268
(g285
g270
NtRp590
(dp591
g288
S'0'
sg289
I46
sbatRp592
ag283
((lp593
g588
ag590
atRp594
ag283
((ltRp595
ag283
((ltRp596
ag283
((ltRp597
ag283
((ltRp598
ag283
((ltRp599
ag283
((ltRp600
ag283
((ltRp601
ag283
((ltRp602
ag283
((ltRp603
ag283
((ltRp604
ag283
((ltRp605
ag283
((ltRp606
ag283
((ltRp607
ag283
((ltRp608
ag283
((ltRp609
ag283
((ltRp610
ag283
((ltRp611
ag283
((ltRp612
ag283
((ltRp613
ag283
((ltRp614
ag283
((ltRp615
ag283
((ltRp616
ag283
((ltRp617
ag283
((ltRp618
ag283
((ltRp619
ag283
((ltRp620
ag283
((ltRp621
ag283
((ltRp622
ag283
((ltRp623
ag283
((ltRp624
ag283
((ltRp625
ag283
((ltRp626
ag283
((lp627
g588
ag590
atRp628
ag283
((lp629
g268
(g285
g270
NtRp630
(dp631
g288
S'0'
sg289
I47
sbag268
(g285
g270
NtRp632
(dp633
g288
S'0'
sg289
I48
sbag268
(g285
g270
NtRp634
(dp635
g288
S'1'
sg289
I47
sbag588
ag268
(g285
g270
NtRp636
(dp637
g288
S'1'
sg289
I46
sbag590
atRp638
ag283
((lp639
g632
ag634
atRp640
ag283
((lp641
g268
(g285
g270
NtRp642
(dp643
g288
S'1'
sg289
I48
sbag632
ag268
(g285
g270
NtRp644
(dp645
g288
S'0'
sg289
I49
sbag634
atRp646
ag283
((lp647
g642
ag644
atRp648
ag283
((lp649
g642
ag644
atRp650
ag283
((ltRp651
ag283
((ltRp652
ag283
((ltRp653
ag283
((ltRp654
ag283
((ltRp655
ag283
((ltRp656
ag283
((ltRp657
ag283
((ltRp658
ag283
((ltRp659
ag283
((ltRp660
ag283
((ltRp661
ag283
((ltRp662
ag283
((ltRp663
ag283
((ltRp664
ag283
((ltRp665
ag283
((ltRp666
ag283
((ltRp667
ag283
((ltRp668
ag283
((ltRp669
ag283
((ltRp670
ag283
((ltRp671
ag283
((ltRp672
ag283
((ltRp673
ag283
((ltRp674
ag283
((ltRp675
ag283
((ltRp676
ag283
((ltRp677
ag283
((ltRp678
ag283
((ltRp679
ag283
((ltRp680
ag283
((ltRp681
ag283
((lp682
g642
ag644
atRp683
ag283
((lp684
g642
ag644
atRp685
ag283
((lp686
g642
ag268
(g285
g270
NtRp687
(dp688
g288
S'1'
sg289
I49
sbag644
ag268
(g285
g270
NtRp689
(dp690
g288
S'0'
sg289
I50
sbatRp691
ag283
((lp692
g687
ag268
(g285
g270
NtRp693
(dp694
g288
S'1'
sg289
I50
sbag689
ag268
(g285
g270
NtRp695
(dp696
g288
S'0'
sg289
I51
sbatRp697
ag283
((lp698
g693
ag695
atRp699
ag283
((lp700
g693
ag695
atRp701
ag283
((lp702
g693
ag695
atRp703
ag283
((ltRp704
ag283
((ltRp705
ag283
((ltRp706
ag283
((ltRp707
ag283
((ltRp708
ag283
((ltRp709
ag283
((ltRp710
ag283
((ltRp711
ag283
((ltRp712
ag283
((ltRp713
ag283
((ltRp714
ag283
((ltRp715
ag283
((ltRp716
ag283
((ltRp717
ag283
((ltRp718
ag283
((ltRp719
ag283
((ltRp720
ag283
((ltRp721
ag283
((ltRp722
ag283
((ltRp723
ag283
((ltRp724
ag283
((ltRp725
ag283
((ltRp726
ag283
((ltRp727
ag283
((ltRp728
ag283
((ltRp729
ag283
((ltRp730
ag283
((ltRp731
ag283
((ltRp732
ag283
((ltRp733
ag283
((lp734
g693
ag695
atRp735
ag283
((lp736
g693
ag695
atRp737
ag283
((lp738
g693
ag695
atRp739
ag283
((lp740
g693
ag268
(g285
g270
NtRp741
(dp742
g288
S'1'
sg289
I51
sbag695
ag268
(g285
g270
NtRp743
(dp744
g288
S'0'
sg289
I52
sbatRp745
ag283
((lp746
g741
ag268
(g285
g270
NtRp747
(dp748
g288
S'1'
sg289
I52
sbag743
ag268
(g285
g270
NtRp749
(dp750
g288
S'0'
sg289
I53
sbatRp751
ag283
((lp752
g747
ag268
(g285
g270
NtRp753
(dp754
g288
S'1'
sg289
I53
sbag749
ag268
(g285
g270
NtRp755
(dp756
g288
S'0'
sg289
I54
sbatRp757
ag283
((lp758
g753
ag755
atRp759
ag283
((ltRp760
ag283
((ltRp761
ag283
((ltRp762
ag283
((ltRp763
ag283
((ltRp764
ag283
((ltRp765
ag283
((ltRp766
ag283
((ltRp767
ag283
((ltRp768
ag283
((ltRp769
ag283
((ltRp770
ag283
((ltRp771
ag283
((ltRp772
ag283
((ltRp773
ag283
((ltRp774
ag283
((ltRp775
ag283
((ltRp776
ag283
((ltRp777
ag283
((ltRp778
ag283
((ltRp779
ag283
((ltRp780
ag283
((ltRp781
ag283
((ltRp782
ag283
((ltRp783
ag283
((ltRp784
ag283
((ltRp785
ag283
((ltRp786
ag283
((ltRp787
ag283
((ltRp788
ag283
((ltRp789
ag283
((ltRp790
ag283
((ltRp791
ag283
((lp792
g753
ag755
atRp793
ag283
((lp794
g268
(g285
g270
NtRp795
(dp796
g288
S'0'
sg289
I55
sbag753
ag268
(g285
g270
NtRp797
(dp798
g288
S'1'
sg289
I54
sbag755
atRp799
ag283
((lp800
g795
ag797
atRp801
ag283
((ltRp802
ag283
((ltRp803
ag283
((ltRp804
ag283
((ltRp805
ag283
((ltRp806
ag283
((ltRp807
ag283
((ltRp808
ag283
((ltRp809
ag283
((ltRp810
ag283
((ltRp811
ag283
((ltRp812
ag283
((ltRp813
ag283
((ltRp814
ag283
((ltRp815
ag283
((ltRp816
ag283
((ltRp817
ag283
((ltRp818
ag283
((ltRp819
ag283
((ltRp820
ag283
((ltRp821
ag283
((ltRp822
ag283
((ltRp823
ag283
((ltRp824
ag283
((ltRp825
ag283
((ltRp826
ag283
((ltRp827
ag283
((ltRp828
ag283
((ltRp829
ag283
((ltRp830
ag283
((ltRp831
ag283
((ltRp832
ag283
((ltRp833
ag283
((lp834
g795
ag797
atRp835
ag283
((lp836
g797
ag268
(g285
g270
NtRp837
(dp838
g288
S'1'
sg289
I55
sbag268
(g285
g270
NtRp839
(dp840
g288
S'1'
sg289
I56
sbag268
(g285
g270
NtRp841
(dp842
g288
S'0'
sg289
I56
sbag268
(g285
g270
NtRp843
(dp844
g288
S'0'
sg289
I57
sbag795
atRp845
ag283
((ltRp846
ag283
((ltRp847
ag283
((ltRp848
ag283
((ltRp849
ag283
((ltRp850
ag283
((ltRp851
ag283
((ltRp852
ag283
((ltRp853
ag283
((ltRp854
ag283
((ltRp855
ag283
((ltRp856
ag283
((ltRp857
ag283
((ltRp858
ag283
((ltRp859
ag283
((ltRp860
ag283
((ltRp861
ag283
((ltRp862
ag283
((ltRp863
ag283
((ltRp864
ag283
((ltRp865
ag283
((ltRp866
ag283
((ltRp867
ag283
((ltRp868
ag283
((ltRp869
ag283
((ltRp870
ag283
((ltRp871
ag283
((ltRp872
ag283
((ltRp873
ag283
((ltRp874
ag283
((ltRp875
ag283
((ltRp876
ag283
((ltRp877
ag283
((ltRp878
ag283
((lp879
g839
ag843
atRp880
ag283
((ltRp881
ag283
((ltRp882
ag283
((ltRp883
ag283
((ltRp884
ag283
((ltRp885
ag283
((ltRp886
ag283
((ltRp887
ag283
((ltRp888
ag283
((ltRp889
ag283
((ltRp890
ag283
((ltRp891
ag283
((ltRp892
ag283
((ltRp893
ag283
((ltRp894
ag283
((ltRp895
ag283
((ltRp896
ag283
((ltRp897
ag283
((ltRp898
ag283
((ltRp899
ag283
((ltRp900
ag283
((ltRp901
ag283
((ltRp902
ag283
((ltRp903
ag283
((ltRp904
ag283
((ltRp905
ag283
((ltRp906
ag283
((ltRp907
ag283
((ltRp908
ag283
((ltRp909
ag283
((ltRp910
ag283
((ltRp911
ag283
((ltRp912
ag283
((ltRp913
ag283
((lp914
g839
ag268
(g285
g270
NtRp915
(dp916
g288
S'1'
sg289
I57
sbag843
ag268
(g285
g270
NtRp917
(dp918
g288
S'0'
sg289
I58
sbatRp919
ag283
((ltRp920
ag283
((ltRp921
ag283
((ltRp922
ag283
((ltRp923
ag283
((ltRp924
ag283
((ltRp925
ag283
((ltRp926
ag283
((ltRp927
ag283
((ltRp928
ag283
((ltRp929
ag283
((ltRp930
ag283
((ltRp931
ag283
((ltRp932
ag283
((ltRp933
ag283
((ltRp934
ag283
((ltRp935
ag283
((ltRp936
ag283
((ltRp937
ag283
((ltRp938
ag283
((ltRp939
ag283
((ltRp940
ag283
((ltRp941
ag283
((ltRp942
ag283
((ltRp943
ag283
((ltRp944
ag283
((ltRp945
ag283
((ltRp946
ag283
((ltRp947
ag283
((ltRp948
ag283
((ltRp949
ag283
((ltRp950
ag283
((ltRp951
ag283
((lp952
g268
(g285
g270
NtRp953
(dp954
g288
S'1'
sg289
I58
sbag268
(g285
g270
NtRp955
(dp956
g288
S'0'
sg289
I59
sbatRp957
ag283
((lp958
g915
ag953
ag917
ag955
atRp959
ag283
((ltRp960
ag283
((ltRp961
ag283
((ltRp962
ag283
((ltRp963
ag283
((ltRp964
ag283
((ltRp965
ag283
((ltRp966
ag283
((ltRp967
ag283
((ltRp968
ag283
((ltRp969
ag283
((ltRp970
ag283
((ltRp971
ag283
((ltRp972
ag283
((ltRp973
ag283
((ltRp974
ag283
((ltRp975
ag283
((ltRp976
ag283
((ltRp977
ag283
((ltRp978
ag283
((ltRp979
ag283
((ltRp980
ag283
((ltRp981
ag283
((ltRp982
ag283
((ltRp983
ag283
((ltRp984
ag283
((ltRp985
ag283
((ltRp986
ag283
((ltRp987
ag283
((ltRp988
ag283
((ltRp989
ag283
((ltRp990
ag283
((ltRp991
ag283
((lp992
g953
ag955
atRp993
ag283
((lp994
g953
ag955
atRp995
ag283
((ltRp996
ag283
((ltRp997
ag283
((ltRp998
ag283
((ltRp999
ag283
((ltRp1000
ag283
((ltRp1001
ag283
((ltRp1002
ag283
((ltRp1003
ag283
((ltRp1004
ag283
((ltRp1005
ag283
((ltRp1006
ag283
((ltRp1007
ag283
((ltRp1008
ag283
((ltRp1009
ag283
((ltRp1010
ag283
((ltRp1011
ag283
((ltRp1012
ag283
((ltRp1013
ag283
((ltRp1014
ag283
((ltRp1015
ag283
((ltRp1016
ag283
((ltRp1017
ag283
((ltRp1018
ag283
((ltRp1019
ag283
((ltRp1020
ag283
((ltRp1021
ag283
((ltRp1022
ag283
((ltRp1023
ag283
((ltRp1024
ag283
((ltRp1025
ag283
((ltRp1026
ag283
((ltRp1027
ag283
((lp1028
g953
ag955
atRp1029
ag283
((lp1030
g953
ag955
atRp1031
asS'si_gridsquaresys'
p1032
g268
(cgrid
GridSquareSystem
p1033
g270
NtRp1034
(dp1035
S'lngstep'
p1036
F0.00125
sS'southwest_gridsquare'
p1037
g268
(cgrid
GridSquare
p1038
g270
NtRp1039
(dp1040
S'sys'
p1041
g1034
sS'gridlat'
p1042
I9
sS'gridlng'
p1043
I31
sbsS'lngref'
p1044
F-79.457939102255295
sS'latstep'
p1045
F0.00087500000000000002
sS'latref'
p1046
F43.626966968592633
sS'northeast_gridsquare'
p1047
g268
(g1038
g270
NtRp1048
(dp1049
g1041
g1034
sg1042
I21
sg1043
I64
sbsbsS'si_plinename_to_gridsquareidxes'
p1050
(dp1051
S'1'
g283
((lp1052
I305
aI270
aI237
aI406
aI407
aI159
aI160
aI161
aI34
aI35
aI36
aI37
aI39
aI40
aI41
aI42
aI43
aI44
aI45
aI46
aI47
aI48
aI49
aI50
aI51
aI52
aI201
aI440
aI441
aI202
aI198
aI164
aI196
aI197
aI70
aI71
aI72
aI73
aI74
aI162
aI163
aI85
aI86
aI87
aI88
aI89
aI271
aI199
aI165
aI235
aI236
aI200
aI339
aI372
aI373
aI122
aI123
aI124
aI125
aI126
aI127
atRp1053
sS'0'
g283
((lp1054
I0
aI1
aI2
aI305
aI270
aI237
aI406
aI407
aI159
aI160
aI161
aI34
aI35
aI36
aI37
aI38
aI39
aI40
aI41
aI42
aI43
aI44
aI45
aI46
aI47
aI48
aI49
aI50
aI51
aI52
aI201
aI440
aI441
aI202
aI198
aI164
aI196
aI197
aI70
aI71
aI72
aI73
aI74
aI162
aI163
aI85
aI86
aI87
aI88
aI89
aI271
aI199
aI165
aI235
aI236
aI200
aI339
aI372
aI373
aI122
aI123
aI124
aI125
aI126
aI127
atRp1055
ssbsS'version'
p1056
I3
sS'datazoom_to_dir_to_routeptaddr_to_mofr'
p1057
(dp1058
I0
(lp1059
(lp1060
I0
aI520
aI1220
aI1576
aI1729
aI2052
aI3251
aI3588
aI4121
aa(lp1061
I0
aI429
aI692
aI1258
aI1564
aI1729
aI2052
aI3251
aI3588
aI4121
aasN(lp1062
(lp1063
I0
aF2.5173297420226044
aF20.687250676860554
aF45.141051735677053
aF166.27099202668558
aF456.19611228939323
aF520.54772720331982
aF530.449971435355
aF547.25586389463626
aF568.61373684511636
aF587.26591418571672
aF599.26065146281792
aF692.62909813106512
aF722.18778693985928
aF767.10339014229316
aF871.75296108217196
aF934.5456253980783
aF1011.4154697089448
aF1062.1147995029828
aF1152.1796430736235
aF1193.7098763399663
aF1220.6948406795061
aF1258.2588602337169
aF1306.436941803991
aF1369.0413642616306
aF1403.1359418162497
aF1457.4799247361923
aF1493.5267701205735
aF1547.9937927457818
aF1564.431224758365
aF1576.9295920301279
aF1593.4977527195579
aF1612.7896290496747
aF1633.2314041733823
aF1687.6305710841459
aF1718.5496082769528
aF1729.0624411679889
aF1737.3872881707373
aF1760.052827723569
aF1791.4163626190964
aF1842.1178358900961
aF1853.5905151985185
aF1947.5757307284714
aF1994.1669244298273
aF2052.3156340772375
aF2099.6248903293267
aF2164.316714926726
aF2225.470507136984
aF2308.3154632240662
aF2505.9995945613596
aF2736.937258061304
aF2790.7021402220421
aF3096.7411390008315
aF3251.4894519066738
aF3285.3507289045224
aF3467.5940379119897
aF3569.2515081526863
aF3588.2938892597499
aF3759.847426908771
aF3861.9489980224648
aF4121.079411671918
aa(lp1064
I0
aF27.63365410883268
aF161.44031381232153
aF295.23001690241517
aF429.02485795268876
aF520.54698794652415
aF530.44923217855933
aF547.25512463784059
aF568.6129975883207
aF587.26517492892106
aF599.25991220602225
aF692.62835887426945
aF722.18704768306361
aF767.1026508854975
aF871.7522218253763
aF934.54488614128263
aF1011.4147304521491
aF1062.1140602461871
aF1152.1789038168279
aF1193.7091370831706
aF1220.6941014227104
aF1258.2581209769212
aF1306.4362025471953
aF1369.040625004835
aF1403.135202559454
aF1457.4791854793966
aF1493.5260308637778
aF1547.9930534889861
aF1564.4304855015694
aF1576.9288527733322
aF1593.4970134627622
aF1612.788889792879
aF1633.2306649165866
aF1687.6298318273502
aF1718.5488690201571
aF1729.0617019111933
aF1737.3865489139416
aF1760.0520884667733
aF1791.4156233623007
aF1842.1170966333004
aF1853.5897759417228
aF1947.5749914716757
aF1994.1661851730316
aF2052.3148948204416
aF2099.6241510725308
aF2164.3159756699301
aF2225.4697678801881
aF2308.3147239672703
aF2505.9988553045637
aF2736.9365188045081
aF2790.7014009652462
aF3096.7403997440356
aF3251.4887126498779
aF3285.3499896477265
aF3467.5932986551938
aF3569.2507688958904
aF3588.293150002954
aF3759.8466876519751
aF3861.9482587656689
aF4121.0786724151221
aasI2
(lp1065
(lp1066
I0
aI20
aI45
aI456
aI520
aI547
aI599
aI692
aI767
aI934
aI1011
aI1220
aI1403
aI1576
aI1633
aI1729
aI1853
aI1947
aI2052
aI2225
aI2736
aI3251
aI3569
aI3588
aI3861
aI4121
aa(lp1067
I0
aI27
aI429
aI547
aI599
aI692
aI767
aI934
aI1011
aI1193
aI1258
aI1403
aI1457
aI1564
aI1593
aI1633
aI1729
aI1853
aI1947
aI2052
aI2225
aI2736
aI3251
aI3569
aI3588
aI3861
aI4121
aasI3
(lp1068
(lp1069
I0
aI2
aI20
aI45
aI166
aI456
aI520
aI547
aI568
aI587
aI599
aI692
aI722
aI767
aI871
aI934
aI1011
aI1062
aI1152
aI1193
aI1220
aI1258
aI1369
aI1403
aI1457
aI1493
aI1564
aI1576
aI1593
aI1612
aI1633
aI1718
aI1729
aI1737
aI1842
aI1853
aI1947
aI1994
aI2052
aI2099
aI2225
aI2308
aI2505
aI2736
aI3096
aI3251
aI3285
aI3467
aI3569
aI3588
aI3759
aI3861
aI4121
aa(lp1070
I0
aI27
aI429
aI520
aI547
aI568
aI587
aI599
aI692
aI722
aI767
aI871
aI934
aI1011
aI1062
aI1152
aI1193
aI1220
aI1258
aI1369
aI1403
aI1457
aI1493
aI1564
aI1576
aI1593
aI1612
aI1633
aI1718
aI1729
aI1737
aI1842
aI1853
aI1947
aI1994
aI2052
aI2099
aI2225
aI2308
aI2505
aI2736
aI3096
aI3251
aI3285
aI3467
aI3569
aI3588
aI3759
aI3861
aI4121
aasI1
(lp1071
(lp1072
I0
aI45
aI520
aI692
aI1011
aI1220
aI1576
aI1729
aI1853
aI2052
aI3251
aI3588
aI4121
aa(lp1073
I0
aI429
aI692
aI1011
aI1258
aI1564
aI1729
aI1853
aI2052
aI3251
aI3588
aI4121
aassb.