(iroutes
RouteInfo
p1
(dp2
S'is_split_by_dir'
p3
I01
sS'name'
p4
S'woodbinesouth'
p5
sS'datazoom_to_dir_to_routepts'
p6
(dp7
I0
(dp8
I0
(lp9
(igeom
LatLng
p10
(dp11
S'lat'
p12
F43.686583740000003
sS'lng'
p13
F-79.312271480000007
sba(igeom
LatLng
p14
(dp15
g12
F43.686397540000002
sg13
F-79.313081499999996
sba(igeom
LatLng
p16
(dp17
g12
F43.666241829999997
sg13
F-79.304809570000003
sba(igeom
LatLng
p18
(dp19
g12
F43.664751709999997
sg13
F-79.305667880000001
sba(igeom
LatLng
p20
(dp21
g12
F43.663231469999999
sg13
F-79.309664369999993
sbasI1
(lp22
(igeom
LatLng
p23
(dp24
g12
F43.686583740000003
sg13
F-79.312271480000007
sba(igeom
LatLng
p25
(dp26
g12
F43.686397540000002
sg13
F-79.313081499999996
sba(igeom
LatLng
p27
(dp28
g12
F43.666241829999997
sg13
F-79.304809570000003
sba(igeom
LatLng
p29
(dp30
g12
F43.664751709999997
sg13
F-79.305667880000001
sba(igeom
LatLng
p31
(dp32
g12
F43.663231469999999
sg13
F-79.309664369999993
sbassN(dp33
I0
(lp34
g10
ag14
a(igeom
LatLng
p35
(dp36
g12
F43.68567213
sg13
F-79.31274354
sba(igeom
LatLng
p37
(dp38
g12
F43.682289349999998
sg13
F-79.311386350000006
sba(igeom
LatLng
p39
(dp40
g12
F43.678223559999999
sg13
F-79.309658999999996
sba(igeom
LatLng
p41
(dp42
g12
F43.673986769999999
sg13
F-79.307920929999995
sba(igeom
LatLng
p43
(dp44
g12
F43.668802890000002
sg13
F-79.305818079999995
sba(igeom
LatLng
p45
(dp46
g12
F43.666754050000002
sg13
F-79.304981229999996
sbag16
a(igeom
LatLng
p47
(dp48
g12
F43.665651990000001
sg13
F-79.304916860000006
sba(igeom
LatLng
p49
(dp50
g12
F43.665170809999999
sg13
F-79.30521727
sbag18
a(igeom
LatLng
p51
(dp52
g12
F43.664301559999998
sg13
F-79.306397439999998
sba(igeom
LatLng
p53
(dp54
g12
F43.663944540000003
sg13
F-79.307341579999999
sba(igeom
LatLng
p55
(dp56
g12
F43.663412889999996
sg13
F-79.309723379999994
sbag20
asI1
(lp57
g23
ag25
a(igeom
LatLng
p58
(dp59
g12
F43.68567213
sg13
F-79.31274354
sba(igeom
LatLng
p60
(dp61
g12
F43.682289349999998
sg13
F-79.311386350000006
sba(igeom
LatLng
p62
(dp63
g12
F43.678223559999999
sg13
F-79.309658999999996
sba(igeom
LatLng
p64
(dp65
g12
F43.673986769999999
sg13
F-79.307920929999995
sba(igeom
LatLng
p66
(dp67
g12
F43.668802890000002
sg13
F-79.305818079999995
sba(igeom
LatLng
p68
(dp69
g12
F43.666754050000002
sg13
F-79.304981229999996
sbag27
a(igeom
LatLng
p70
(dp71
g12
F43.665651990000001
sg13
F-79.304916860000006
sba(igeom
LatLng
p72
(dp73
g12
F43.665170809999999
sg13
F-79.30521727
sbag29
a(igeom
LatLng
p74
(dp75
g12
F43.664301559999998
sg13
F-79.306397439999998
sba(igeom
LatLng
p76
(dp77
g12
F43.663944540000003
sg13
F-79.307341579999999
sba(igeom
LatLng
p78
(dp79
g12
F43.663924448461934
sg13
F-79.307460798434334
sba(igeom
LatLng
p80
(dp81
g12
F43.663892623333339
sg13
F-79.30757474666666
sba(igeom
LatLng
p82
(dp83
g12
F43.663872531795271
sg13
F-79.307693965098707
sba(igeom
LatLng
p84
(dp85
g12
F43.663840706666669
sg13
F-79.307807913333335
sba(igeom
LatLng
p86
(dp87
g12
F43.663820615128607
sg13
F-79.307927131763108
sba(igeom
LatLng
p88
(dp89
g12
F43.663788789999998
sg13
F-79.30804108000001
sba(igeom
LatLng
p90
(dp91
g12
F43.663768698461929
sg13
F-79.308160298427481
sba(igeom
LatLng
p92
(dp93
g12
F43.663736873333335
sg13
F-79.30827424666667
sba(igeom
LatLng
p94
(dp95
g12
F43.663716781795273
sg13
F-79.308393465091868
sba(igeom
LatLng
p96
(dp97
g12
F43.663684956666671
sg13
F-79.308507413333331
sba(igeom
LatLng
p98
(dp99
g12
F43.663664865128602
sg13
F-79.308626631756269
sba(igeom
LatLng
p100
(dp101
g12
F43.663633040000001
sg13
F-79.308740580000006
sba(igeom
LatLng
p102
(dp103
g12
F43.663567868114271
sg13
F-79.308884236067115
sba(igeom
LatLng
p104
(dp105
g12
F43.663492589999997
sg13
F-79.309018109999997
sba(igeom
LatLng
p106
(dp107
g12
F43.663401844895233
sg13
F-79.309119235148415
sba(igeom
LatLng
p108
(dp109
g12
F43.663304023333332
sg13
F-79.30920639
sba(igeom
LatLng
p110
(dp111
g12
F43.663209739999999
sg13
F-79.309300530000002
sba(igeom
LatLng
p112
(dp113
g12
F43.663185328519788
sg13
F-79.309468562017528
sba(igeom
LatLng
p114
(dp115
g12
F43.663148999999997
sg13
F-79.309632179999994
sbag31
assI2
(dp116
I0
(lp117
g10
ag14
ag39
ag16
ag47
ag49
ag18
ag51
ag53
ag55
ag20
asI1
(lp118
g23
ag25
ag62
ag27
ag70
ag72
ag29
ag74
ag76
ag100
ag104
ag110
ag114
ag31
assI3
(dp119
I0
(lp120
g10
ag14
ag35
ag37
ag39
ag45
ag16
ag47
ag49
ag18
ag51
ag53
ag55
ag20
asI1
(lp121
g23
ag25
ag58
ag60
ag62
ag68
ag27
ag70
ag72
ag29
ag74
ag76
ag100
ag104
ag110
ag114
ag31
assI1
(dp122
I0
(lp123
g10
ag14
ag16
ag18
ag53
ag55
ag20
asI1
(lp124
g23
ag25
ag27
ag29
ag31
asssS'snapgraph'
p125
ccopy_reg
_reconstructor
p126
(csnapgraph
SnapGraph
p127
c__builtin__
object
p128
NtRp129
(dp130
S'use_vert_only_floyd_warshall'
p131
I00
sS'plinename2pts'
p132
(dp133
S'1'
g57
sS'0'
g34
ssg4
NsS'use_floyd_warshall'
p134
I00
sS'plinename_to_ptidx_to_mapl'
p135
(dp136
S'1'
(lp137
I0
aF68.305888623226608
aF153.3749330323331
aF544.81633949860793
aF1017.5064043564663
aF1508.640911906042
aF2109.026977433788
aF2346.450652105962
aF2405.0239476362299
aF2471.1395761960002
aF2529.8150623609044
aF2588.820130258769
aF2665.908664816182
aF2751.555946723041
aF2761.3970105324611
aF2771.2167869810619
aF2781.0578586837432
aF2790.8776426949526
aF2800.7187222925586
aF2810.5385138656711
aF2820.3796013548517
aF2830.1994004895428
aF2840.0404958736331
aF2849.8603025702159
aF2859.7014058496893
aF2869.5212201066943
aF2883.1535068938747
aF2896.7852158677406
aF2909.7388889604522
aF2922.6724750194353
aF2935.5979521690538
aF2949.3765566482207
aF2963.1362147200171
aF2972.6597031810602
asS'0'
(lp138
I0
aF68.305888623226608
aF153.3749330323331
aF544.81633949860793
aF1017.5064043564663
aF1508.640911906042
aF2109.026977433788
aF2346.450652105962
aF2405.0239476362299
aF2471.1395761960002
aF2529.8150623609044
aF2588.820130258769
aF2665.908664816182
aF2751.555946723041
aF2951.9467701336225
aF2972.6591218623216
assS'si_linesegaddrs_by_gridsquareidx'
p139
(lp140
c__builtin__
set
p141
((ltRp142
ag141
((ltRp143
ag141
((ltRp144
ag141
((lp145
g126
(csnapgraph
PtAddr
p146
g128
NtRp147
(dp148
S'plinename'
p149
S'1'
sS'ptidx'
p150
I28
sbag126
(g146
g128
NtRp151
(dp152
g149
S'1'
sg150
I29
sbag126
(g146
g128
NtRp153
(dp154
g149
S'1'
sg150
I30
sbag126
(g146
g128
NtRp155
(dp156
g149
S'1'
sg150
I31
sbag126
(g146
g128
NtRp157
(dp158
g149
S'1'
sg150
I32
sbag126
(g146
g128
NtRp159
(dp160
g149
S'0'
sg150
I13
sbag126
(g146
g128
NtRp161
(dp162
g149
S'0'
sg150
I14
sbatRp163
ag141
((lp164
g126
(g146
g128
NtRp165
(dp166
g149
S'1'
sg150
I21
sbag126
(g146
g128
NtRp167
(dp168
g149
S'1'
sg150
I22
sbag126
(g146
g128
NtRp169
(dp170
g149
S'1'
sg150
I23
sbag126
(g146
g128
NtRp171
(dp172
g149
S'1'
sg150
I24
sbag126
(g146
g128
NtRp173
(dp174
g149
S'1'
sg150
I25
sbag126
(g146
g128
NtRp175
(dp176
g149
S'1'
sg150
I26
sbag126
(g146
g128
NtRp177
(dp178
g149
S'1'
sg150
I27
sbag147
ag159
atRp179
ag141
((lp180
g159
atRp181
ag141
((ltRp182
ag141
((ltRp183
ag141
((ltRp184
ag141
((ltRp185
ag141
((ltRp186
ag141
((lp187
g159
atRp188
ag141
((lp189
g126
(g146
g128
NtRp190
(dp191
g149
S'1'
sg150
I18
sbag126
(g146
g128
NtRp192
(dp193
g149
S'1'
sg150
I19
sbag126
(g146
g128
NtRp194
(dp195
g149
S'1'
sg150
I20
sbag165
ag159
atRp196
ag141
((lp197
g126
(g146
g128
NtRp198
(dp199
g149
S'1'
sg150
I16
sbag126
(g146
g128
NtRp200
(dp201
g149
S'1'
sg150
I17
sbag190
ag126
(g146
g128
NtRp202
(dp203
g149
S'0'
sg150
I12
sbag159
ag126
(g146
g128
NtRp204
(dp205
g149
S'1'
sg150
I12
sbag126
(g146
g128
NtRp206
(dp207
g149
S'1'
sg150
I13
sbag126
(g146
g128
NtRp208
(dp209
g149
S'1'
sg150
I14
sbag126
(g146
g128
NtRp210
(dp211
g149
S'1'
sg150
I15
sbatRp212
ag141
((lp213
g126
(g146
g128
NtRp214
(dp215
g149
S'0'
sg150
I11
sbag126
(g146
g128
NtRp216
(dp217
g149
S'1'
sg150
I11
sbag204
ag202
atRp218
ag141
((ltRp219
ag141
((ltRp220
ag141
((ltRp221
ag141
((ltRp222
ag141
((ltRp223
ag141
((ltRp224
ag141
((ltRp225
ag141
((lp226
g126
(g146
g128
NtRp227
(dp228
g149
S'0'
sg150
I10
sbag126
(g146
g128
NtRp229
(dp230
g149
S'1'
sg150
I10
sbag216
ag214
atRp231
ag141
((lp232
g126
(g146
g128
NtRp233
(dp234
g149
S'1'
sg150
I9
sbag229
ag227
ag126
(g146
g128
NtRp235
(dp236
g149
S'0'
sg150
I9
sbatRp237
ag141
((ltRp238
ag141
((ltRp239
ag141
((ltRp240
ag141
((ltRp241
ag141
((ltRp242
ag141
((ltRp243
ag141
((ltRp244
ag141
((lp245
g126
(g146
g128
NtRp246
(dp247
g149
S'1'
sg150
I7
sbag126
(g146
g128
NtRp248
(dp249
g149
S'0'
sg150
I7
sbag126
(g146
g128
NtRp250
(dp251
g149
S'0'
sg150
I8
sbag126
(g146
g128
NtRp252
(dp253
g149
S'1'
sg150
I8
sbag233
ag235
atRp254
ag141
((ltRp255
ag141
((ltRp256
ag141
((ltRp257
ag141
((ltRp258
ag141
((ltRp259
ag141
((ltRp260
ag141
((lp261
g126
(g146
g128
NtRp262
(dp263
g149
S'1'
sg150
I6
sbag126
(g146
g128
NtRp264
(dp265
g149
S'0'
sg150
I6
sbatRp266
ag141
((lp267
g248
ag264
ag262
ag246
atRp268
ag141
((ltRp269
ag141
((ltRp270
ag141
((ltRp271
ag141
((ltRp272
ag141
((ltRp273
ag141
((ltRp274
ag141
((lp275
g262
ag264
atRp276
ag141
((lp277
g262
ag264
atRp278
ag141
((ltRp279
ag141
((ltRp280
ag141
((ltRp281
ag141
((ltRp282
ag141
((ltRp283
ag141
((lp284
g126
(g146
g128
NtRp285
(dp286
g149
S'1'
sg150
I5
sbag126
(g146
g128
NtRp287
(dp288
g149
S'0'
sg150
I5
sbatRp289
ag141
((lp290
g287
ag285
ag262
ag264
atRp291
ag141
((lp292
g262
ag264
atRp293
ag141
((ltRp294
ag141
((ltRp295
ag141
((ltRp296
ag141
((ltRp297
ag141
((ltRp298
ag141
((lp299
g285
ag287
atRp300
ag141
((lp301
g285
ag287
atRp302
ag141
((ltRp303
ag141
((ltRp304
ag141
((ltRp305
ag141
((ltRp306
ag141
((ltRp307
ag141
((ltRp308
ag141
((lp309
g285
ag287
atRp310
ag141
((lp311
g285
ag287
atRp312
ag141
((ltRp313
ag141
((ltRp314
ag141
((ltRp315
ag141
((ltRp316
ag141
((ltRp317
ag141
((ltRp318
ag141
((lp319
g285
ag287
atRp320
ag141
((lp321
g285
ag287
atRp322
ag141
((ltRp323
ag141
((ltRp324
ag141
((ltRp325
ag141
((ltRp326
ag141
((ltRp327
ag141
((ltRp328
ag141
((lp329
g285
ag287
atRp330
ag141
((lp331
g285
ag287
atRp332
ag141
((ltRp333
ag141
((ltRp334
ag141
((ltRp335
ag141
((ltRp336
ag141
((ltRp337
ag141
((ltRp338
ag141
((lp339
g285
ag287
atRp340
ag141
((lp341
g285
ag287
atRp342
ag141
((ltRp343
ag141
((ltRp344
ag141
((ltRp345
ag141
((ltRp346
ag141
((lp347
g126
(g146
g128
NtRp348
(dp349
g149
S'1'
sg150
I4
sbag126
(g146
g128
NtRp350
(dp351
g149
S'0'
sg150
I4
sbatRp352
ag141
((lp353
g348
ag350
atRp354
ag141
((lp355
g348
ag285
ag287
ag350
atRp356
ag141
((lp357
g285
ag287
atRp358
ag141
((ltRp359
ag141
((ltRp360
ag141
((ltRp361
ag141
((ltRp362
ag141
((lp363
g348
ag350
atRp364
ag141
((lp365
g348
ag350
atRp366
ag141
((lp367
g348
ag350
atRp368
ag141
((ltRp369
ag141
((ltRp370
ag141
((ltRp371
ag141
((ltRp372
ag141
((ltRp373
ag141
((lp374
g348
ag350
atRp375
ag141
((lp376
g348
ag350
atRp377
ag141
((lp378
g348
ag350
atRp379
ag141
((ltRp380
ag141
((ltRp381
ag141
((ltRp382
ag141
((ltRp383
ag141
((ltRp384
ag141
((lp385
g348
ag350
atRp386
ag141
((lp387
g348
ag350
atRp388
ag141
((lp389
g348
ag350
atRp390
ag141
((ltRp391
ag141
((ltRp392
ag141
((ltRp393
ag141
((ltRp394
ag141
((ltRp395
ag141
((lp396
g348
ag350
atRp397
ag141
((lp398
g348
ag350
atRp399
ag141
((lp400
g348
ag350
atRp401
ag141
((ltRp402
ag141
((ltRp403
ag141
((ltRp404
ag141
((ltRp405
ag141
((lp406
g126
(g146
g128
NtRp407
(dp408
g149
S'1'
sg150
I3
sbag126
(g146
g128
NtRp409
(dp410
g149
S'0'
sg150
I3
sbatRp411
ag141
((lp412
g409
ag407
ag348
ag350
atRp413
ag141
((lp414
g348
ag350
atRp415
ag141
((lp416
g348
ag350
atRp417
ag141
((ltRp418
ag141
((ltRp419
ag141
((ltRp420
ag141
((ltRp421
ag141
((lp422
g407
ag409
atRp423
ag141
((lp424
g407
ag409
atRp425
ag141
((ltRp426
ag141
((ltRp427
ag141
((ltRp428
ag141
((ltRp429
ag141
((ltRp430
ag141
((ltRp431
ag141
((lp432
g407
ag409
atRp433
ag141
((lp434
g407
ag409
atRp435
ag141
((ltRp436
ag141
((ltRp437
ag141
((ltRp438
ag141
((ltRp439
ag141
((ltRp440
ag141
((ltRp441
ag141
((lp442
g407
ag409
atRp443
ag141
((lp444
g407
ag409
atRp445
ag141
((ltRp446
ag141
((ltRp447
ag141
((ltRp448
ag141
((ltRp449
ag141
((ltRp450
ag141
((ltRp451
ag141
((lp452
g407
ag409
atRp453
ag141
((lp454
g407
ag409
atRp455
ag141
((ltRp456
ag141
((ltRp457
ag141
((ltRp458
ag141
((ltRp459
ag141
((ltRp460
ag141
((lp461
g126
(g146
g128
NtRp462
(dp463
g149
S'1'
sg150
I2
sbag126
(g146
g128
NtRp464
(dp465
g149
S'0'
sg150
I2
sbatRp466
ag141
((lp467
g464
ag462
ag407
ag409
atRp468
ag141
((lp469
g407
ag409
atRp470
ag141
((ltRp471
ag141
((ltRp472
ag141
((ltRp473
ag141
((ltRp474
ag141
((ltRp475
ag141
((lp476
g462
ag464
atRp477
ag141
((lp478
g462
ag464
atRp479
ag141
((ltRp480
ag141
((ltRp481
ag141
((ltRp482
ag141
((ltRp483
ag141
((ltRp484
ag141
((ltRp485
ag141
((lp486
g462
ag464
atRp487
ag141
((lp488
g462
ag464
atRp489
ag141
((ltRp490
ag141
((ltRp491
ag141
((ltRp492
ag141
((ltRp493
ag141
((ltRp494
ag141
((ltRp495
ag141
((lp496
g462
ag464
atRp497
ag141
((lp498
g462
ag464
atRp499
ag141
((ltRp500
ag141
((ltRp501
ag141
((ltRp502
ag141
((ltRp503
ag141
((ltRp504
ag141
((lp505
g126
(g146
g128
NtRp506
(dp507
g149
S'1'
sg150
I0
sbag126
(g146
g128
NtRp508
(dp509
g149
S'1'
sg150
I1
sbag126
(g146
g128
NtRp510
(dp511
g149
S'0'
sg150
I1
sbag126
(g146
g128
NtRp512
(dp513
g149
S'0'
sg150
I0
sbatRp514
ag141
((lp515
g512
ag510
ag506
ag508
ag462
ag464
atRp516
ag141
((lp517
g462
ag464
atRp518
ag141
((ltRp519
ag141
((ltRp520
ag141
((ltRp521
ag141
((ltRp522
ag141
((ltRp523
ag141
((lp524
g506
ag512
atRp525
ag141
((lp526
g506
ag512
atRp527
ag141
((ltRp528
ag141
((ltRp529
ag141
((ltRp530
ag141
((ltRp531
ag141
((ltRp532
ag141
((ltRp533
asS'si_gridsquaresys'
p534
g126
(cgrid
GridSquareSystem
p535
g128
NtRp536
(dp537
S'lngstep'
p538
F0.00125
sS'southwest_gridsquare'
p539
g126
(cgrid
GridSquare
p540
g128
NtRp541
(dp542
S'sys'
p543
g536
sS'gridlat'
p544
I41
sS'gridlng'
p545
I115
sbsS'lngref'
p546
F-79.457939102255295
sS'latstep'
p547
F0.00087500000000000002
sS'latref'
p548
F43.626966968592633
sS'northeast_gridsquare'
p549
g126
(g540
g128
NtRp550
(dp551
g543
g536
sg544
I68
sg545
I122
sbsbsS'si_plinename_to_gridsquareidxes'
p552
(dp553
S'1'
g141
((lp554
I131
aI132
aI133
aI138
aI139
aI140
aI141
aI14
aI146
aI147
aI22
aI23
aI4
aI154
aI155
aI31
aI162
aI163
aI38
aI39
aI170
aI171
aI46
aI47
aI177
aI178
aI179
aI53
aI54
aI55
aI185
aI186
aI61
aI62
aI193
aI194
aI69
aI70
aI201
aI202
aI77
aI78
aI13
aI208
aI209
aI210
aI85
aI86
aI216
aI217
aI93
aI94
aI3
aI99
aI100
aI101
aI102
aI107
aI108
aI109
aI12
aI115
aI116
aI117
aI123
aI124
aI125
atRp555
sS'0'
g141
((lp556
I131
aI132
aI133
aI138
aI139
aI140
aI141
aI14
aI146
aI147
aI22
aI23
aI4
aI154
aI155
aI5
aI31
aI162
aI163
aI38
aI39
aI170
aI171
aI46
aI47
aI177
aI178
aI179
aI53
aI54
aI55
aI185
aI186
aI61
aI62
aI193
aI194
aI11
aI69
aI70
aI201
aI202
aI77
aI78
aI13
aI208
aI209
aI210
aI85
aI86
aI216
aI217
aI93
aI94
aI3
aI99
aI100
aI101
aI102
aI107
aI108
aI109
aI12
aI115
aI116
aI117
aI123
aI124
aI125
atRp557
ssbsS'version'
p558
I0
sS'datazoom_to_dir_to_routeptaddr_to_mofr'
p559
(dp560
I0
(lp561
(lp562
I0
aI68
aI2405
aI2588
aI2972
aa(lp563
I0
aI68
aI2405
aI2588
aI2972
aasN(lp564
(lp565
I0
aF68.305888623226608
aF153.3749330323331
aF544.81633949860793
aF1017.5064043564663
aF1508.640911906042
aF2109.026977433788
aF2346.450652105962
aF2405.0239476362299
aF2471.1395761960002
aF2529.8150623609044
aF2588.820130258769
aF2665.908664816182
aF2751.555946723041
aF2951.9467701336225
aF2972.6591218623216
aa(lp566
I0
aF68.305888623226608
aF153.3749330323331
aF544.81633949860793
aF1017.5064043564663
aF1508.640911906042
aF2109.026977433788
aF2346.450652105962
aF2405.0239476362299
aF2471.1395761960002
aF2529.8150623609044
aF2588.820130258769
aF2665.908664816182
aF2751.555946723041
aF2761.3970105324611
aF2771.2167869810619
aF2781.0578586837432
aF2790.8776426949526
aF2800.7187222925586
aF2810.5385138656711
aF2820.3796013548517
aF2830.1994004895428
aF2840.0404958736331
aF2849.8603025702159
aF2859.7014058496893
aF2869.5212201066943
aF2883.1535068938747
aF2896.7852158677406
aF2909.7388889604522
aF2922.6724750194353
aF2935.5979521690538
aF2949.3765566482207
aF2963.1362147200171
aF2972.6597031810602
aasI2
(lp567
(lp568
I0
aI68
aI1017
aI2405
aI2471
aI2529
aI2588
aI2665
aI2751
aI2951
aI2972
aa(lp569
I0
aI68
aI1017
aI2405
aI2471
aI2529
aI2588
aI2665
aI2751
aI2869
aI2896
aI2935
aI2963
aI2972
aasI3
(lp570
(lp571
I0
aI68
aI153
aI544
aI1017
aI2346
aI2405
aI2471
aI2529
aI2588
aI2665
aI2751
aI2951
aI2972
aa(lp572
I0
aI68
aI153
aI544
aI1017
aI2346
aI2405
aI2471
aI2529
aI2588
aI2665
aI2751
aI2869
aI2896
aI2935
aI2963
aI2972
aasI1
(lp573
(lp574
I0
aI68
aI2405
aI2588
aI2751
aI2951
aI2972
aa(lp575
I0
aI68
aI2405
aI2588
aI2972
aassb.