(iroutes
RouteInfo
p1
(dp2
S'is_split_by_dir'
p3
I01
sS'name'
p4
S'main'
p5
sS'datazoom_to_dir_to_routepts'
p6
(dp7
I0
(dp8
I0
(lp9
(igeom
LatLng
p10
(dp11
S'lat'
p12
F43.695617640000002
sS'lng'
p13
F-79.301226139999997
sba(igeom
LatLng
p14
(dp15
g12
F43.694872949999997
sg13
F-79.304745199999999
sba(igeom
LatLng
p16
(dp17
g12
F43.679969399999997
sg13
F-79.298050399999994
sba(igeom
LatLng
p18
(dp19
g12
F43.670956429999997
sg13
F-79.295749069999999
sba(igeom
LatLng
p20
(dp21
g12
F43.670719740000003
sg13
F-79.296875600000007
sbasI1
(lp22
(igeom
LatLng
p23
(dp24
g12
F43.695617640000002
sg13
F-79.301226139999997
sba(igeom
LatLng
p25
(dp26
g12
F43.693189599999997
sg13
F-79.300099610000004
sba(igeom
LatLng
p27
(dp28
g12
F43.691723420000002
sg13
F-79.303404090000001
sba(igeom
LatLng
p29
(dp30
g12
F43.674273890000002
sg13
F-79.29623187
sba(igeom
LatLng
p31
(dp32
g12
F43.673847090000002
sg13
F-79.298157689999996
sba(igeom
LatLng
p33
(dp34
g12
F43.670719740000003
sg13
F-79.296875600000007
sbassN(dp35
I0
(lp36
g10
a(igeom
LatLng
p37
(dp38
g12
F43.695627340000001
sg13
F-79.3013227
sba(igeom
LatLng
p39
(dp40
g12
F43.695621418077828
sg13
F-79.301381531894492
sba(igeom
LatLng
p41
(dp42
g12
F43.695602605901641
sg13
F-79.301434913114761
sba(igeom
LatLng
p43
(dp44
g12
F43.695596683979467
sg13
F-79.301493745008116
sba(igeom
LatLng
p45
(dp46
g12
F43.69557787180328
sg13
F-79.301547126229508
sba(igeom
LatLng
p47
(dp48
g12
F43.695571949881106
sg13
F-79.301605958121755
sba(igeom
LatLng
p49
(dp50
g12
F43.69555313770492
sg13
F-79.301659339344269
sba(igeom
LatLng
p51
(dp52
g12
F43.695547215782746
sg13
F-79.301718171235379
sba(igeom
LatLng
p53
(dp54
g12
F43.695528403606559
sg13
F-79.301771552459016
sba(igeom
LatLng
p55
(dp56
g12
F43.695522481684378
sg13
F-79.301830384349017
sba(igeom
LatLng
p57
(dp58
g12
F43.695503669508199
sg13
F-79.301883765573777
sba(igeom
LatLng
p59
(dp60
g12
F43.695497747586032
sg13
F-79.301942597462642
sba(igeom
LatLng
p61
(dp62
g12
F43.695478935409838
sg13
F-79.301995978688524
sba(igeom
LatLng
p63
(dp64
g12
F43.695473013487671
sg13
F-79.30205481057628
sba(igeom
LatLng
p65
(dp66
g12
F43.695454201311478
sg13
F-79.302108191803285
sba(igeom
LatLng
p67
(dp68
g12
F43.695448279389311
sg13
F-79.302167023689904
sba(igeom
LatLng
p69
(dp70
g12
F43.695429467213117
sg13
F-79.302220404918032
sba(igeom
LatLng
p71
(dp72
g12
F43.695423545290936
sg13
F-79.302279236803543
sba(igeom
LatLng
p73
(dp74
g12
F43.695404733114756
sg13
F-79.302332618032793
sba(igeom
LatLng
p75
(dp76
g12
F43.695398811192575
sg13
F-79.302391449917152
sba(igeom
LatLng
p77
(dp78
g12
F43.695379999016396
sg13
F-79.30244483114754
sba(igeom
LatLng
p79
(dp80
g12
F43.695374077094215
sg13
F-79.302503663030791
sba(igeom
LatLng
p81
(dp82
g12
F43.695355264918035
sg13
F-79.302557044262301
sba(igeom
LatLng
p83
(dp84
g12
F43.695349342995868
sg13
F-79.302615876144415
sba(igeom
LatLng
p85
(dp86
g12
F43.695330530819675
sg13
F-79.302669257377048
sba(igeom
LatLng
p87
(dp88
g12
F43.695324608897508
sg13
F-79.302728089258039
sba(igeom
LatLng
p89
(dp90
g12
F43.695305796721314
sg13
F-79.302781470491809
sba(igeom
LatLng
p91
(dp92
g12
F43.695299874799147
sg13
F-79.302840302371678
sba(igeom
LatLng
p93
(dp94
g12
F43.695281062622954
sg13
F-79.302893683606555
sba(igeom
LatLng
p95
(dp96
g12
F43.69527514070078
sg13
F-79.302952515485316
sba(igeom
LatLng
p97
(dp98
g12
F43.695256328524593
sg13
F-79.303005896721317
sba(igeom
LatLng
p99
(dp100
g12
F43.695250406602412
sg13
F-79.303064728598926
sba(igeom
LatLng
p101
(dp102
g12
F43.695231594426225
sg13
F-79.303118109836063
sba(igeom
LatLng
p103
(dp104
g12
F43.695225672504051
sg13
F-79.303176941712579
sba(igeom
LatLng
p105
(dp106
g12
F43.695206860327865
sg13
F-79.303230322950824
sba(igeom
LatLng
p107
(dp108
g12
F43.695200938405691
sg13
F-79.303289154826203
sba(igeom
LatLng
p109
(dp110
g12
F43.695182126229504
sg13
F-79.303342536065571
sba(igeom
LatLng
p111
(dp112
g12
F43.69517620430733
sg13
F-79.303401367939827
sba(igeom
LatLng
p113
(dp114
g12
F43.695157392131144
sg13
F-79.303454749180332
sba(igeom
LatLng
p115
(dp116
g12
F43.695151470208963
sg13
F-79.303513581053465
sba(igeom
LatLng
p117
(dp118
g12
F43.695132658032783
sg13
F-79.303566962295079
sba(igeom
LatLng
p119
(dp120
g12
F43.695126736110616
sg13
F-79.303625794167104
sba(igeom
LatLng
p121
(dp122
g12
F43.695107923934422
sg13
F-79.30367917540984
sba(igeom
LatLng
p123
(dp124
g12
F43.695102002012248
sg13
F-79.303738007280714
sba(igeom
LatLng
p125
(dp126
g12
F43.695083189836062
sg13
F-79.303791388524587
sba(igeom
LatLng
p127
(dp128
g12
F43.695077267913888
sg13
F-79.303850220394352
sba(igeom
LatLng
p129
(dp130
g12
F43.695058455737701
sg13
F-79.303903601639348
sba(igeom
LatLng
p131
(dp132
g12
F43.69505253381552
sg13
F-79.303962433507976
sba(igeom
LatLng
p133
(dp134
g12
F43.695033721639341
sg13
F-79.304015814754095
sba(igeom
LatLng
p135
(dp136
g12
F43.695027799717167
sg13
F-79.304074646621601
sba(igeom
LatLng
p137
(dp138
g12
F43.69500898754098
sg13
F-79.304128027868856
sba(igeom
LatLng
p139
(dp140
g12
F43.695003065618806
sg13
F-79.304186859735239
sba(igeom
LatLng
p141
(dp142
g12
F43.69498425344262
sg13
F-79.304240240983603
sba(igeom
LatLng
p143
(dp144
g12
F43.694978331520446
sg13
F-79.304299072848863
sba(igeom
LatLng
p145
(dp146
g12
F43.694959519344259
sg13
F-79.304352454098364
sba(igeom
LatLng
p147
(dp148
g12
F43.694953597422078
sg13
F-79.304411285962487
sba(igeom
LatLng
p149
(dp150
g12
F43.694934785245898
sg13
F-79.304464667213111
sba(igeom
LatLng
p151
(dp152
g12
F43.694928863323717
sg13
F-79.30452349907614
sba(igeom
LatLng
p153
(dp154
g12
F43.694910051147538
sg13
F-79.304576880327872
sba(igeom
LatLng
p155
(dp156
g12
F43.694904129225364
sg13
F-79.30463571218975
sba(igeom
LatLng
p157
(dp158
g12
F43.694885317049177
sg13
F-79.304689093442619
sbag14
a(igeom
LatLng
p159
(dp160
g12
F43.694830488753958
sg13
F-79.304736871419806
sba(igeom
LatLng
p161
(dp162
g12
F43.694792192820508
sg13
F-79.304710812564096
sba(igeom
LatLng
p163
(dp164
g12
F43.694749731574483
sg13
F-79.304702483971965
sba(igeom
LatLng
p165
(dp166
g12
F43.694711435641025
sg13
F-79.304676425128207
sba(igeom
LatLng
p167
(dp168
g12
F43.694668974395
sg13
F-79.304668096524125
sba(igeom
LatLng
p169
(dp170
g12
F43.694630678461536
sg13
F-79.304642037692304
sba(igeom
LatLng
p171
(dp172
g12
F43.694588217215504
sg13
F-79.304633709076285
sba(igeom
LatLng
p173
(dp174
g12
F43.694549921282047
sg13
F-79.304607650256415
sba(igeom
LatLng
p175
(dp176
g12
F43.694507460036007
sg13
F-79.304599321628459
sba(igeom
LatLng
p177
(dp178
g12
F43.694469164102564
sg13
F-79.304573262820512
sba(igeom
LatLng
p179
(dp180
g12
F43.694426702856539
sg13
F-79.304564934180618
sba(igeom
LatLng
p181
(dp182
g12
F43.694388406923075
sg13
F-79.304538875384608
sba(igeom
LatLng
p183
(dp184
g12
F43.694345945677043
sg13
F-79.304530546732792
sba(igeom
LatLng
p185
(dp186
g12
F43.694307649743585
sg13
F-79.304504487948719
sba(igeom
LatLng
p187
(dp188
g12
F43.69426518849756
sg13
F-79.304496159284952
sba(igeom
LatLng
p189
(dp190
g12
F43.694226892564103
sg13
F-79.304470100512816
sba(igeom
LatLng
p191
(dp192
g12
F43.694184431318071
sg13
F-79.304461771837111
sba(igeom
LatLng
p193
(dp194
g12
F43.694146135384614
sg13
F-79.304435713076927
sba(igeom
LatLng
p195
(dp196
g12
F43.694103674138582
sg13
F-79.304427384389271
sba(igeom
LatLng
p197
(dp198
g12
F43.694065378205124
sg13
F-79.304401325641024
sba(igeom
LatLng
p199
(dp200
g12
F43.694022916959092
sg13
F-79.304392996941431
sba(igeom
LatLng
p201
(dp202
g12
F43.693984621025642
sg13
F-79.304366938205135
sba(igeom
LatLng
p203
(dp204
g12
F43.69394215977961
sg13
F-79.304358609493605
sba(igeom
LatLng
p205
(dp206
g12
F43.693903863846153
sg13
F-79.304332550769232
sba(igeom
LatLng
p207
(dp208
g12
F43.693861402600128
sg13
F-79.304324222045764
sba(igeom
LatLng
p209
(dp210
g12
F43.693823106666663
sg13
F-79.304298163333328
sba(igeom
LatLng
p211
(dp212
g12
F43.693780645420638
sg13
F-79.304289834597952
sba(igeom
LatLng
p213
(dp214
g12
F43.693742349487181
sg13
F-79.304263775897439
sba(igeom
LatLng
p215
(dp216
g12
F43.693699888241149
sg13
F-79.304255447150112
sba(igeom
LatLng
p217
(dp218
g12
F43.693661592307691
sg13
F-79.304229388461536
sba(igeom
LatLng
p219
(dp220
g12
F43.693619131061659
sg13
F-79.304221059702257
sba(igeom
LatLng
p221
(dp222
g12
F43.693580835128202
sg13
F-79.304195001025647
sba(igeom
LatLng
p223
(dp224
g12
F43.69353837388217
sg13
F-79.304186672254431
sba(igeom
LatLng
p225
(dp226
g12
F43.69350007794872
sg13
F-79.304160613589744
sba(igeom
LatLng
p227
(dp228
g12
F43.693457616702688
sg13
F-79.304152284806591
sba(igeom
LatLng
p229
(dp230
g12
F43.69341932076923
sg13
F-79.304126226153841
sba(igeom
LatLng
p231
(dp232
g12
F43.693376859523198
sg13
F-79.304117897358751
sba(igeom
LatLng
p233
(dp234
g12
F43.693338563589741
sg13
F-79.304091838717952
sba(igeom
LatLng
p235
(dp236
g12
F43.693296102343716
sg13
F-79.304083509910939
sba(igeom
LatLng
p237
(dp238
g12
F43.693257806410259
sg13
F-79.304057451282048
sba(igeom
LatLng
p239
(dp240
g12
F43.693215345164234
sg13
F-79.304049122463098
sba(igeom
LatLng
p241
(dp242
g12
F43.693177049230769
sg13
F-79.304023063846159
sba(igeom
LatLng
p243
(dp244
g12
F43.69313458798473
sg13
F-79.304014735015258
sba(igeom
LatLng
p245
(dp246
g12
F43.69309629205128
sg13
F-79.303988676410256
sba(igeom
LatLng
p247
(dp248
g12
F43.693053830805248
sg13
F-79.303980347567418
sba(igeom
LatLng
p249
(dp250
g12
F43.693015534871797
sg13
F-79.303954288974353
sba(igeom
LatLng
p251
(dp252
g12
F43.692973073625765
sg13
F-79.303945960119592
sba(igeom
LatLng
p253
(dp254
g12
F43.692934777692308
sg13
F-79.303919901538464
sba(igeom
LatLng
p255
(dp256
g12
F43.692892316446276
sg13
F-79.303911572671737
sba(igeom
LatLng
p257
(dp258
g12
F43.692854020512819
sg13
F-79.303885514102561
sba(igeom
LatLng
p259
(dp260
g12
F43.692811559266794
sg13
F-79.303877185223911
sba(igeom
LatLng
p261
(dp262
g12
F43.692773263333336
sg13
F-79.303851126666672
sba(igeom
LatLng
p263
(dp264
g12
F43.692730802087297
sg13
F-79.303842797776099
sba(igeom
LatLng
p265
(dp266
g12
F43.692692506153847
sg13
F-79.303816739230768
sba(igeom
LatLng
p267
(dp268
g12
F43.692650044907815
sg13
F-79.303808410328259
sba(igeom
LatLng
p269
(dp270
g12
F43.692611748974358
sg13
F-79.303782351794865
sba(igeom
LatLng
p271
(dp272
g12
F43.692569287728325
sg13
F-79.303774022880418
sba(igeom
LatLng
p273
(dp274
g12
F43.692530991794875
sg13
F-79.303747964358976
sba(igeom
LatLng
p275
(dp276
g12
F43.692488530548843
sg13
F-79.303739635432578
sba(igeom
LatLng
p277
(dp278
g12
F43.692450234615386
sg13
F-79.303713576923073
sba(igeom
LatLng
p279
(dp280
g12
F43.692407773369354
sg13
F-79.303705247984752
sba(igeom
LatLng
p281
(dp282
g12
F43.692369477435896
sg13
F-79.303679189487184
sba(igeom
LatLng
p283
(dp284
g12
F43.692327016189871
sg13
F-79.303670860536897
sba(igeom
LatLng
p285
(dp286
g12
F43.692288720256414
sg13
F-79.303644802051281
sba(igeom
LatLng
p287
(dp288
g12
F43.692246259010375
sg13
F-79.303636473089071
sba(igeom
LatLng
p289
(dp290
g12
F43.692207963076925
sg13
F-79.303610414615392
sba(igeom
LatLng
p291
(dp292
g12
F43.692165501830893
sg13
F-79.303602085641245
sba(igeom
LatLng
p293
(dp294
g12
F43.692127205897435
sg13
F-79.303576027179489
sba(igeom
LatLng
p295
(dp296
g12
F43.692084744651403
sg13
F-79.303567698193419
sba(igeom
LatLng
p297
(dp298
g12
F43.692046448717953
sg13
F-79.303541639743585
sba(igeom
LatLng
p299
(dp300
g12
F43.692003987471921
sg13
F-79.303533310745578
sba(igeom
LatLng
p301
(dp302
g12
F43.691965691538464
sg13
F-79.303507252307696
sba(igeom
LatLng
p303
(dp304
g12
F43.691923230292431
sg13
F-79.303498923297738
sba(igeom
LatLng
p305
(dp306
g12
F43.691884934358974
sg13
F-79.303472864871793
sba(igeom
LatLng
p307
(dp308
g12
F43.691842473112949
sg13
F-79.303464535849898
sba(igeom
LatLng
p309
(dp310
g12
F43.691804177179492
sg13
F-79.303438477435904
sba(igeom
LatLng
p311
(dp312
g12
F43.691761715933467
sg13
F-79.303430148402072
sba(igeom
LatLng
p313
(dp314
g12
F43.691723420000002
sg13
F-79.303404090000001
sba(igeom
LatLng
p315
(dp316
g12
F43.68918661
sg13
F-79.302288290000007
sba(igeom
LatLng
p317
(dp318
g12
F43.687347930000001
sg13
F-79.301419260000003
sba(igeom
LatLng
p319
(dp320
g12
F43.686060050000002
sg13
F-79.300882819999998
sba(igeom
LatLng
p321
(dp322
g12
F43.68454715
sg13
F-79.300292729999995
sba(igeom
LatLng
p323
(dp324
g12
F43.683973010000003
sg13
F-79.300174709999993
sba(igeom
LatLng
p325
(dp326
g12
F43.682227279999999
sg13
F-79.299488069999995
sba(igeom
LatLng
p327
(dp328
g12
F43.681311729999997
sg13
F-79.299123289999997
sba(igeom
LatLng
p329
(dp330
g12
F43.680815150000001
sg13
F-79.298844340000002
sba(igeom
LatLng
p331
(dp332
g12
F43.680419430000001
sg13
F-79.298372270000002
sba(igeom
LatLng
p333
(dp334
g12
F43.680178900000001
sg13
F-79.298136229999997
sbag16
a(igeom
LatLng
p335
(dp336
g12
F43.679480570000003
sg13
F-79.298082590000007
sba(igeom
LatLng
p337
(dp338
g12
F43.679115889999999
sg13
F-79.298120139999995
sba(igeom
LatLng
p339
(dp340
g12
F43.678999500000003
sg13
F-79.298104050000006
sba(igeom
LatLng
p341
(dp342
g12
F43.67887923
sg13
F-79.297991390000007
sba(igeom
LatLng
p343
(dp344
g12
F43.678751200000001
sg13
F-79.29791093
sba(igeom
LatLng
p345
(dp346
g12
F43.677618320000001
sg13
F-79.297433499999997
sba(igeom
LatLng
p347
(dp348
g12
F43.676190560000002
sg13
F-79.296875600000007
sba(igeom
LatLng
p349
(dp350
g12
F43.67581809
sg13
F-79.296854139999994
sba(igeom
LatLng
p351
(dp352
g12
F43.675336989999998
sg13
F-79.2966342
sba(igeom
LatLng
p353
(dp354
g12
F43.674273890000002
sg13
F-79.29623187
sba(igeom
LatLng
p355
(dp356
g12
F43.674087649999997
sg13
F-79.297068719999999
sba(igeom
LatLng
p357
(dp358
g12
F43.672954689999997
sg13
F-79.296591280000001
sba(igeom
LatLng
p359
(dp360
g12
F43.671480250000002
sg13
F-79.295969009999993
sbag18
ag20
asI1
(lp361
g23
a(igeom
LatLng
p362
(dp363
g12
F43.695562440000003
sg13
F-79.301122250000006
sbag25
a(igeom
LatLng
p364
(dp365
g12
F43.692687669999998
sg13
F-79.302395329999996
sba(igeom
LatLng
p366
(dp367
g12
F43.691992890000002
sg13
F-79.302093200000002
sbag27
a(igeom
LatLng
p368
(dp369
g12
F43.68918661
sg13
F-79.302288290000007
sba(igeom
LatLng
p370
(dp371
g12
F43.687347930000001
sg13
F-79.301419260000003
sba(igeom
LatLng
p372
(dp373
g12
F43.686060050000002
sg13
F-79.300882819999998
sba(igeom
LatLng
p374
(dp375
g12
F43.68454715
sg13
F-79.300292729999995
sba(igeom
LatLng
p376
(dp377
g12
F43.683973010000003
sg13
F-79.300174709999993
sba(igeom
LatLng
p378
(dp379
g12
F43.682227279999999
sg13
F-79.299488069999995
sba(igeom
LatLng
p380
(dp381
g12
F43.681311729999997
sg13
F-79.299123289999997
sba(igeom
LatLng
p382
(dp383
g12
F43.680815150000001
sg13
F-79.298844340000002
sba(igeom
LatLng
p384
(dp385
g12
F43.680419430000001
sg13
F-79.298372270000002
sba(igeom
LatLng
p386
(dp387
g12
F43.680178900000001
sg13
F-79.298136229999997
sba(igeom
LatLng
p388
(dp389
g12
F43.679969399999997
sg13
F-79.298050399999994
sba(igeom
LatLng
p390
(dp391
g12
F43.679480570000003
sg13
F-79.298082590000007
sba(igeom
LatLng
p392
(dp393
g12
F43.679115889999999
sg13
F-79.298120139999995
sba(igeom
LatLng
p394
(dp395
g12
F43.678999500000003
sg13
F-79.298104050000006
sba(igeom
LatLng
p396
(dp397
g12
F43.67887923
sg13
F-79.297991390000007
sba(igeom
LatLng
p398
(dp399
g12
F43.678751200000001
sg13
F-79.29791093
sba(igeom
LatLng
p400
(dp401
g12
F43.677618320000001
sg13
F-79.297433499999997
sba(igeom
LatLng
p402
(dp403
g12
F43.676190560000002
sg13
F-79.296875600000007
sba(igeom
LatLng
p404
(dp405
g12
F43.67581809
sg13
F-79.296854139999994
sba(igeom
LatLng
p406
(dp407
g12
F43.675336989999998
sg13
F-79.2966342
sbag29
a(igeom
LatLng
p408
(dp409
g12
F43.674087649999997
sg13
F-79.297068719999999
sba(igeom
LatLng
p410
(dp411
g12
F43.674079921692083
sg13
F-79.297135491760145
sba(igeom
LatLng
p412
(dp413
g12
F43.674059348823526
sg13
F-79.297196834117642
sba(igeom
LatLng
p414
(dp415
g12
F43.674051620515613
sg13
F-79.297263605876523
sba(igeom
LatLng
p416
(dp417
g12
F43.674031047647055
sg13
F-79.297324948235286
sba(igeom
LatLng
p418
(dp419
g12
F43.674023319339135
sg13
F-79.297391719992888
sba(igeom
LatLng
p420
(dp421
g12
F43.674002746470585
sg13
F-79.297453062352943
sba(igeom
LatLng
p422
(dp423
g12
F43.673995018162671
sg13
F-79.297519834109252
sba(igeom
LatLng
p424
(dp425
g12
F43.673974445294114
sg13
F-79.297581176470587
sba(igeom
LatLng
p426
(dp427
g12
F43.673966716986207
sg13
F-79.297647948225631
sba(igeom
LatLng
p428
(dp429
g12
F43.67394614411765
sg13
F-79.29770929058823
sba(igeom
LatLng
p430
(dp431
g12
F43.673938415809744
sg13
F-79.297776062341995
sba(igeom
LatLng
p432
(dp433
g12
F43.673917842941179
sg13
F-79.297837404705874
sba(igeom
LatLng
p434
(dp435
g12
F43.673910114633266
sg13
F-79.29790417645836
sba(igeom
LatLng
p436
(dp437
g12
F43.673889541764709
sg13
F-79.297965518823531
sba(igeom
LatLng
p438
(dp439
g12
F43.673881813456795
sg13
F-79.298032290574739
sba(igeom
LatLng
p440
(dp441
g12
F43.673861240588238
sg13
F-79.298093632941175
sbag31
a(igeom
LatLng
p442
(dp443
g12
F43.673795721178166
sg13
F-79.29814618467924
sba(igeom
LatLng
p444
(dp445
g12
F43.673748279333338
sg13
F-79.298116920666658
sba(igeom
LatLng
p446
(dp447
g12
F43.673696910511509
sg13
F-79.298105415331293
sba(igeom
LatLng
p448
(dp449
g12
F43.673649468666667
sg13
F-79.298076151333333
sba(igeom
LatLng
p450
(dp451
g12
F43.673598099844838
sg13
F-79.298064645983331
sba(igeom
LatLng
p452
(dp453
g12
F43.673550658000003
sg13
F-79.298035381999995
sba(igeom
LatLng
p454
(dp455
g12
F43.67349928917816
sg13
F-79.298023876635384
sba(igeom
LatLng
p456
(dp457
g12
F43.673451847333332
sg13
F-79.29799461266667
sba(igeom
LatLng
p458
(dp459
g12
F43.673400478511503
sg13
F-79.297983107287436
sba(igeom
LatLng
p460
(dp461
g12
F43.673353036666668
sg13
F-79.297953843333332
sba(igeom
LatLng
p462
(dp463
g12
F43.673301667844846
sg13
F-79.297942337939475
sba(igeom
LatLng
p464
(dp465
g12
F43.673254225999997
sg13
F-79.297913073999993
sba(igeom
LatLng
p466
(dp467
g12
F43.673202857178168
sg13
F-79.297901568591527
sba(igeom
LatLng
p468
(dp469
g12
F43.673155415333333
sg13
F-79.297872304666669
sba(igeom
LatLng
p470
(dp471
g12
F43.673106009999998
sg13
F-79.297851919999999
sba(igeom
LatLng
p472
(dp473
g12
F43.673057256903661
sg13
F-79.297841655707245
sba(igeom
LatLng
p474
(dp475
g12
F43.673012430784311
sg13
F-79.297813632941171
sba(igeom
LatLng
p476
(dp477
g12
F43.672963677687974
sg13
F-79.29780336863459
sba(igeom
LatLng
p478
(dp479
g12
F43.672918851568625
sg13
F-79.297775345882357
sba(igeom
LatLng
p480
(dp481
g12
F43.672870098472288
sg13
F-79.297765081561892
sba(igeom
LatLng
p482
(dp483
g12
F43.672825272352938
sg13
F-79.297737058823529
sba(igeom
LatLng
p484
(dp485
g12
F43.672776519256601
sg13
F-79.297726794489236
sba(igeom
LatLng
p486
(dp487
g12
F43.672731693137251
sg13
F-79.297698771764701
sba(igeom
LatLng
p488
(dp489
g12
F43.672682940040907
sg13
F-79.297688507416566
sba(igeom
LatLng
p490
(dp491
g12
F43.672638113921565
sg13
F-79.297660484705887
sba(igeom
LatLng
p492
(dp493
g12
F43.672589360825221
sg13
F-79.297650220343897
sba(igeom
LatLng
p494
(dp495
g12
F43.672544534705878
sg13
F-79.297622197647058
sba(igeom
LatLng
p496
(dp497
g12
F43.672495781609534
sg13
F-79.297611933271227
sba(igeom
LatLng
p498
(dp499
g12
F43.672450955490199
sg13
F-79.29758391058823
sba(igeom
LatLng
p500
(dp501
g12
F43.672402202393855
sg13
F-79.297573646198558
sba(igeom
LatLng
p502
(dp503
g12
F43.672357376274512
sg13
F-79.297545623529416
sba(igeom
LatLng
p504
(dp505
g12
F43.672308623178168
sg13
F-79.297535359125902
sba(igeom
LatLng
p506
(dp507
g12
F43.672263797058825
sg13
F-79.297507336470588
sba(igeom
LatLng
p508
(dp509
g12
F43.672215043962481
sg13
F-79.297497072053218
sba(igeom
LatLng
p510
(dp511
g12
F43.672170217843139
sg13
F-79.297469049411774
sba(igeom
LatLng
p512
(dp513
g12
F43.672121464746809
sg13
F-79.297458784980549
sba(igeom
LatLng
p514
(dp515
g12
F43.672076638627452
sg13
F-79.297430762352946
sba(igeom
LatLng
p516
(dp517
g12
F43.672027885531115
sg13
F-79.297420497907893
sba(igeom
LatLng
p518
(dp519
g12
F43.671983059411765
sg13
F-79.297392475294117
sba(igeom
LatLng
p520
(dp521
g12
F43.671934306315421
sg13
F-79.29738221083521
sba(igeom
LatLng
p522
(dp523
g12
F43.671889480196079
sg13
F-79.297354188235303
sba(igeom
LatLng
p524
(dp525
g12
F43.671840727099735
sg13
F-79.297343923762554
sba(igeom
LatLng
p526
(dp527
g12
F43.671795900980392
sg13
F-79.297315901176475
sba(igeom
LatLng
p528
(dp529
g12
F43.671747147884048
sg13
F-79.297305636689885
sba(igeom
LatLng
p530
(dp531
g12
F43.671702321764705
sg13
F-79.297277614117647
sba(igeom
LatLng
p532
(dp533
g12
F43.671653568668368
sg13
F-79.297267349617201
sba(igeom
LatLng
p534
(dp535
g12
F43.671608742549019
sg13
F-79.297239327058833
sba(igeom
LatLng
p536
(dp537
g12
F43.671559989452682
sg13
F-79.297229062544559
sba(igeom
LatLng
p538
(dp539
g12
F43.671515163333332
sg13
F-79.297201040000004
sba(igeom
LatLng
p540
(dp541
g12
F43.671466410236988
sg13
F-79.29719077547189
sba(igeom
LatLng
p542
(dp543
g12
F43.671421584117645
sg13
F-79.297162752941176
sba(igeom
LatLng
p544
(dp545
g12
F43.671372831021309
sg13
F-79.29715248839922
sba(igeom
LatLng
p546
(dp547
g12
F43.671328004901959
sg13
F-79.297124465882362
sba(igeom
LatLng
p548
(dp549
g12
F43.671279251805629
sg13
F-79.297114201326551
sba(igeom
LatLng
p550
(dp551
g12
F43.671234425686279
sg13
F-79.297086178823534
sba(igeom
LatLng
p552
(dp553
g12
F43.671185672589935
sg13
F-79.297075914253867
sba(igeom
LatLng
p554
(dp555
g12
F43.671140846470593
sg13
F-79.297047891764706
sba(igeom
LatLng
p556
(dp557
g12
F43.671092093374249
sg13
F-79.297037627181211
sba(igeom
LatLng
p558
(dp559
g12
F43.671047267254906
sg13
F-79.297009604705892
sba(igeom
LatLng
p560
(dp561
g12
F43.670998514158562
sg13
F-79.296999340108556
sba(igeom
LatLng
p562
(dp563
g12
F43.670953688039219
sg13
F-79.296971317647063
sba(igeom
LatLng
p564
(dp565
g12
F43.670904934942875
sg13
F-79.296961053035872
sba(igeom
LatLng
p566
(dp567
g12
F43.670860108823533
sg13
F-79.296933030588235
sba(igeom
LatLng
p568
(dp569
g12
F43.670811355727196
sg13
F-79.296922765963203
sba(igeom
LatLng
p570
(dp571
g12
F43.670766529607846
sg13
F-79.296894743529421
sbag33
assI2
(dp572
I0
(lp573
g10
ag14
ag319
ag321
ag323
ag327
ag329
ag333
ag16
ag339
ag343
ag345
ag347
ag349
ag353
ag355
ag18
ag20
asI1
(lp574
g23
ag362
ag25
ag364
ag366
ag27
ag372
ag374
ag376
ag380
ag382
ag386
ag388
ag394
ag398
ag400
ag402
ag404
ag29
ag31
ag33
assI3
(dp575
I0
(lp576
g10
ag39
ag14
ag311
ag315
ag317
ag319
ag321
ag323
ag327
ag329
ag331
ag333
ag16
ag337
ag339
ag341
ag343
ag345
ag347
ag349
ag351
ag353
ag355
ag18
ag20
asI1
(lp577
g23
ag362
ag25
ag364
ag366
ag27
ag368
ag370
ag372
ag374
ag376
ag380
ag382
ag384
ag386
ag388
ag392
ag394
ag396
ag398
ag400
ag402
ag404
ag406
ag29
ag31
ag33
assI1
(dp578
I0
(lp579
g10
ag14
ag327
ag16
ag339
ag353
ag355
ag18
ag20
asI1
(lp580
g23
ag25
ag364
ag366
ag27
ag380
ag386
ag394
ag29
ag31
ag33
asssS'snapgraph'
p581
ccopy_reg
_reconstructor
p582
(csnapgraph
SnapGraph
p583
c__builtin__
object
p584
NtRp585
(dp586
S'use_vert_only_floyd_warshall'
p587
I00
sS'plinename2pts'
p588
(dp589
S'1'
g361
sS'0'
g36
ssg4
NsS'use_floyd_warshall'
p590
I00
sS'plinename_to_ptidx_to_mapl'
p591
(dp592
S'1'
(lp593
I0
aF10.359372497079072
aF286.56623367351625
aF479.28764344493447
aF560.22741258567817
aF669.73987682434199
aF965.5779185560109
aF1181.5201190495131
aF1330.9974514705741
aF1505.6902903470966
aF1570.197237288098
aF1771.9008976886623
aF1877.7881007623007
aF1937.3545806404832
aF1995.4367123091999
aF2028.2152505034032
aF2052.4980488636597
aF2106.884703429515
aF2147.5248564117537
aF2160.5240980245703
aF2176.6684387619584
aF2192.2974565507416
aF2323.9157325085766
aF2488.8014855403253
aF2530.2310705042023
aF2586.5439516447541
aF2709.0353127016306
aF2779.4135611845177
aF2784.8489699483184
aF2790.2839633066428
aF2795.7193744698147
aF2801.1543700304796
aF2806.5897835911132
aF2812.0247813547485
aF2817.4601973126187
aF2822.8951972798181
aF2828.330615635934
aF2833.765617804544
aF2839.2010385590156
aF2844.6360429311881
aF2850.0714660821059
aF2855.5064726581727
aF2860.941898208453
aF2866.3769069859281
aF2871.7606405908787
aF2877.5438280174753
aF2883.3171091611957
aF2889.1002970176305
aF2894.8735792625816
aF2900.6567675507417
aF2906.4300508936926
aF2912.2132396151824
aF2917.9865240563586
aF2923.7697132078538
aF2929.5429987493767
aF2935.3261883310424
aF2941.0994749737829
aF2946.8826649873872
aF2952.6559527276972
aF2958.3857915914655
aF2963.8663229113249
aF2969.3335623310741
aF2974.8140940126555
aF2980.2813344215256
aF2985.7618664638944
aF2991.2291078606181
aF2996.7096402641669
aF3002.1768826495841
aF3007.6574154157111
aF3013.1246587891746
aF3018.6051919157849
aF3024.0724362779356
aF3029.5529697658831
aF3035.0202151160743
aF3040.5007489657514
aF3045.9679953048467
aF3051.4485295150107
aF3056.9157768432055
aF3062.3963114148646
aF3067.8635597308921
aF3073.3440946623414
aF3078.8113439689737
aF3084.2918792623113
aF3089.7591295563243
aF3095.2396652117054
aF3100.7069164933191
aF3106.1874525104367
aF3111.654704781135
aF3117.135241158901
aF3122.6024944182591
aF3128.0830311565205
aF3133.5502854043375
aF3139.0308225043391
aF3144.4980777416527
aF3149.9786152030051
aF3155.4458714283255
aF3160.926409250023
aF3166.3936664648581
aF3171.8742046472098
aF3177.3414628500459
aF3182.8220013953037
aF3188.2892605857164
aF3193.7697994918676
aF3199.2370596709188
aF3204.7175989391258
aF3210.1848601068132
aF3215.6653997356793
aF3221.1326618919993
aF3226.6132018812177
aF3232.0804650263904
aF3237.5032526809296
asS'0'
(lp594
I0
aF7.8332492508743492
aF12.606058968607336
aF17.377692896932771
aF22.15050445475314
aF26.922140054274927
aF31.694953455219192
aF36.466590725627086
aF41.239405967766828
aF46.011044909370042
aF50.783861994729293
aF55.555502608136493
aF60.328321533384432
aF65.099963818605403
aF69.872784586876037
aF74.644428544519442
aF79.417251152871856
aF84.188896781708536
aF88.961721234386701
aF93.733368532877762
aF98.50619482462335
aF103.27784379614448
aF108.050671932019
aF112.82232257442213
aF117.59515255027722
aF122.36680486449104
aF127.13963668244821
aF131.91129066969057
aF136.68412432873643
aF141.45577998625006
aF146.22861548850611
aF151.00027281689972
aF155.77311015932756
aF160.54476915982926
aF165.31760834628295
aF170.08926901797329
aF174.86211004440196
aF179.6337723875902
aF184.40661525611534
aF189.17827927232904
aF193.95112398203474
aF198.72278966820693
aF203.49563622183729
aF208.2673035785869
aF213.04015197146845
aF217.81182100185117
aF222.58467123783797
aF227.35634193848736
aF232.12919401565097
aF236.90086638717568
aF241.67372030633271
aF246.44539435118955
aF251.2182501113266
aF255.98992582675831
aF260.76278342898439
aF265.53446081651856
aF270.30732025991773
aF275.07899931924408
aF279.8518606057429
aF284.62354133502316
aF289.39640446158324
aF294.16808686327414
aF298.88121877965494
aF303.64727692163956
aF308.39041720354123
aF313.15647560545511
aF317.89961670752018
aF322.66567537090759
aF327.40881729575614
aF332.17487622103079
aF336.91801896567188
aF341.68407815283467
aF346.42722171816854
aF351.1932811651206
aF355.93642555449941
aF360.70248526319784
aF365.44563047281332
aF370.21169044228981
aF374.95483647359123
aF379.72089670495939
aF384.46404355622445
aF389.23010404907239
aF393.97325172246991
aF398.73931247651137
aF403.48246096968467
aF408.24852198492056
aF412.99167130130718
aF417.75773257633858
aF422.50088271485043
aF427.26694425149088
aF432.01009521067402
aF436.77615700949855
aF441.51930879035086
aF446.28537085051693
aF451.02852345086484
aF455.79458577237335
aF460.53773919465397
aF465.30380177736225
aF470.0469560211219
aF474.81301886503081
aF479.55617393045014
aF484.32223703471715
aF489.06539292187898
aF493.83145628749196
aF498.57461299585736
aF503.34067662491697
aF508.08383415348322
aF512.84989804234715
aF517.5930563923805
aF522.35912054230596
aF527.10227971462132
aF531.8683441261835
aF536.61150411887547
aF541.37756879080098
aF546.12072960558726
aF550.88679453997679
aF555.62995617585455
aF560.39602137089639
aF565.1391838290466
aF569.90524928529794
aF574.64841256318095
aF579.41447828078628
aF584.15764238075394
aF588.923708359427
aF593.66687328102569
aF598.43293952064175
aF603.17610526260034
aF607.94217176468578
aF612.6853383280876
aF617.45140509083058
aF622.19457247567311
aF626.96063949948746
aF631.7038077055854
aF636.46987499131535
aF641.2130440190324
aF645.97911156542261
aF650.72228141457322
aF655.48834922148103
aF660.23151989179462
aF664.99758796006438
aF669.74075945225809
aF965.578801183927
aF1181.5210016774292
aF1330.9983340984902
aF1505.6911729750127
aF1570.1981199160141
aF1771.9017803165784
aF1877.7889833902168
aF1937.3554632683993
aF1995.437594937116
aF2028.2161331313193
aF2052.4989314915761
aF2106.8855860574313
aF2147.52573903967
aF2160.5249806524866
aF2176.6693213898748
aF2192.2983391786579
aF2323.916615136493
aF2488.8023681682416
aF2530.2319531321186
aF2586.5448342726704
aF2709.0361953295469
aF2779.414443812434
aF2911.0423280182422
aF3082.3655964929376
aF3143.2046947776143
aF3237.5031955747231
assS'si_linesegaddrs_by_gridsquareidx'
p595
(lp596
c__builtin__
set
p597
((ltRp598
ag597
((ltRp599
ag597
((ltRp600
ag597
((ltRp601
ag597
((ltRp602
ag597
((ltRp603
ag597
((lp604
g582
(csnapgraph
PtAddr
p605
g584
NtRp606
(dp607
S'plinename'
p608
S'0'
sS'ptidx'
p609
I165
sbag582
(g605
g584
NtRp610
(dp611
g608
S'1'
sg609
I91
sbag582
(g605
g584
NtRp612
(dp613
g608
S'1'
sg609
I92
sbag582
(g605
g584
NtRp614
(dp615
g608
S'1'
sg609
I93
sbag582
(g605
g584
NtRp616
(dp617
g608
S'1'
sg609
I94
sbag582
(g605
g584
NtRp618
(dp619
g608
S'1'
sg609
I95
sbag582
(g605
g584
NtRp620
(dp621
g608
S'1'
sg609
I96
sbag582
(g605
g584
NtRp622
(dp623
g608
S'1'
sg609
I97
sbag582
(g605
g584
NtRp624
(dp625
g608
S'1'
sg609
I98
sbag582
(g605
g584
NtRp626
(dp627
g608
S'1'
sg609
I99
sbag582
(g605
g584
NtRp628
(dp629
g608
S'1'
sg609
I100
sbag582
(g605
g584
NtRp630
(dp631
g608
S'1'
sg609
I101
sbag582
(g605
g584
NtRp632
(dp633
g608
S'1'
sg609
I102
sbag582
(g605
g584
NtRp634
(dp635
g608
S'1'
sg609
I103
sbag582
(g605
g584
NtRp636
(dp637
g608
S'1'
sg609
I104
sbag582
(g605
g584
NtRp638
(dp639
g608
S'1'
sg609
I105
sbag582
(g605
g584
NtRp640
(dp641
g608
S'1'
sg609
I106
sbag582
(g605
g584
NtRp642
(dp643
g608
S'1'
sg609
I107
sbag582
(g605
g584
NtRp644
(dp645
g608
S'1'
sg609
I108
sbag582
(g605
g584
NtRp646
(dp647
g608
S'1'
sg609
I109
sbatRp648
ag597
((lp649
g582
(g605
g584
NtRp650
(dp651
g608
S'0'
sg609
I163
sbag582
(g605
g584
NtRp652
(dp653
g608
S'0'
sg609
I164
sbag606
atRp654
ag597
((ltRp655
ag597
((ltRp656
ag597
((ltRp657
ag597
((ltRp658
ag597
((ltRp659
ag597
((ltRp660
ag597
((lp661
g582
(g605
g584
NtRp662
(dp663
g608
S'1'
sg609
I80
sbag582
(g605
g584
NtRp664
(dp665
g608
S'1'
sg609
I81
sbag582
(g605
g584
NtRp666
(dp667
g608
S'1'
sg609
I82
sbag582
(g605
g584
NtRp668
(dp669
g608
S'1'
sg609
I83
sbag582
(g605
g584
NtRp670
(dp671
g608
S'1'
sg609
I84
sbag582
(g605
g584
NtRp672
(dp673
g608
S'1'
sg609
I85
sbag582
(g605
g584
NtRp674
(dp675
g608
S'1'
sg609
I86
sbag582
(g605
g584
NtRp676
(dp677
g608
S'1'
sg609
I87
sbag582
(g605
g584
NtRp678
(dp679
g608
S'1'
sg609
I88
sbag582
(g605
g584
NtRp680
(dp681
g608
S'1'
sg609
I89
sbag582
(g605
g584
NtRp682
(dp683
g608
S'1'
sg609
I90
sbag610
ag582
(g605
g584
NtRp684
(dp685
g608
S'1'
sg609
I72
sbag582
(g605
g584
NtRp686
(dp687
g608
S'1'
sg609
I73
sbag582
(g605
g584
NtRp688
(dp689
g608
S'1'
sg609
I74
sbag582
(g605
g584
NtRp690
(dp691
g608
S'1'
sg609
I75
sbag582
(g605
g584
NtRp692
(dp693
g608
S'1'
sg609
I76
sbag582
(g605
g584
NtRp694
(dp695
g608
S'1'
sg609
I77
sbag582
(g605
g584
NtRp696
(dp697
g608
S'1'
sg609
I78
sbag582
(g605
g584
NtRp698
(dp699
g608
S'1'
sg609
I79
sbatRp700
ag597
((lp701
g650
atRp702
ag597
((ltRp703
ag597
((ltRp704
ag597
((ltRp705
ag597
((ltRp706
ag597
((ltRp707
ag597
((lp708
g582
(g605
g584
NtRp709
(dp710
g608
S'1'
sg609
I54
sbag582
(g605
g584
NtRp711
(dp712
g608
S'1'
sg609
I55
sbatRp713
ag597
((lp714
g582
(g605
g584
NtRp715
(dp716
g608
S'0'
sg609
I162
sbag711
ag582
(g605
g584
NtRp717
(dp718
g608
S'1'
sg609
I56
sbag582
(g605
g584
NtRp719
(dp720
g608
S'1'
sg609
I57
sbag582
(g605
g584
NtRp721
(dp722
g608
S'1'
sg609
I58
sbag582
(g605
g584
NtRp723
(dp724
g608
S'1'
sg609
I59
sbag582
(g605
g584
NtRp725
(dp726
g608
S'1'
sg609
I60
sbag582
(g605
g584
NtRp727
(dp728
g608
S'1'
sg609
I61
sbag582
(g605
g584
NtRp729
(dp730
g608
S'1'
sg609
I62
sbag582
(g605
g584
NtRp731
(dp732
g608
S'1'
sg609
I63
sbag582
(g605
g584
NtRp733
(dp734
g608
S'1'
sg609
I64
sbag582
(g605
g584
NtRp735
(dp736
g608
S'1'
sg609
I65
sbag582
(g605
g584
NtRp737
(dp738
g608
S'1'
sg609
I66
sbag582
(g605
g584
NtRp739
(dp740
g608
S'1'
sg609
I67
sbag582
(g605
g584
NtRp741
(dp742
g608
S'1'
sg609
I68
sbag582
(g605
g584
NtRp743
(dp744
g608
S'1'
sg609
I69
sbag582
(g605
g584
NtRp745
(dp746
g608
S'1'
sg609
I70
sbag582
(g605
g584
NtRp747
(dp748
g608
S'1'
sg609
I71
sbag684
atRp749
ag597
((lp750
g715
ag650
atRp751
ag597
((ltRp752
ag597
((ltRp753
ag597
((ltRp754
ag597
((ltRp755
ag597
((ltRp756
ag597
((lp757
g582
(g605
g584
NtRp758
(dp759
g608
S'1'
sg609
I48
sbag582
(g605
g584
NtRp760
(dp761
g608
S'1'
sg609
I49
sbag582
(g605
g584
NtRp762
(dp763
g608
S'1'
sg609
I50
sbag582
(g605
g584
NtRp764
(dp765
g608
S'1'
sg609
I51
sbag582
(g605
g584
NtRp766
(dp767
g608
S'1'
sg609
I52
sbag582
(g605
g584
NtRp768
(dp769
g608
S'1'
sg609
I53
sbag709
ag582
(g605
g584
NtRp770
(dp771
g608
S'1'
sg609
I40
sbag582
(g605
g584
NtRp772
(dp773
g608
S'1'
sg609
I41
sbag582
(g605
g584
NtRp774
(dp775
g608
S'1'
sg609
I42
sbag582
(g605
g584
NtRp776
(dp777
g608
S'1'
sg609
I43
sbag582
(g605
g584
NtRp778
(dp779
g608
S'1'
sg609
I44
sbag582
(g605
g584
NtRp780
(dp781
g608
S'1'
sg609
I45
sbag582
(g605
g584
NtRp782
(dp783
g608
S'1'
sg609
I46
sbag582
(g605
g584
NtRp784
(dp785
g608
S'1'
sg609
I47
sbatRp786
ag597
((lp787
g715
ag582
(g605
g584
NtRp788
(dp789
g608
S'0'
sg609
I161
sbag582
(g605
g584
NtRp790
(dp791
g608
S'1'
sg609
I26
sbag582
(g605
g584
NtRp792
(dp793
g608
S'1'
sg609
I27
sbag582
(g605
g584
NtRp794
(dp795
g608
S'1'
sg609
I28
sbag582
(g605
g584
NtRp796
(dp797
g608
S'1'
sg609
I29
sbag582
(g605
g584
NtRp798
(dp799
g608
S'1'
sg609
I30
sbag582
(g605
g584
NtRp800
(dp801
g608
S'1'
sg609
I31
sbag582
(g605
g584
NtRp802
(dp803
g608
S'1'
sg609
I32
sbag582
(g605
g584
NtRp804
(dp805
g608
S'1'
sg609
I33
sbag582
(g605
g584
NtRp806
(dp807
g608
S'1'
sg609
I34
sbag582
(g605
g584
NtRp808
(dp809
g608
S'1'
sg609
I35
sbag582
(g605
g584
NtRp810
(dp811
g608
S'1'
sg609
I36
sbag582
(g605
g584
NtRp812
(dp813
g608
S'1'
sg609
I37
sbag582
(g605
g584
NtRp814
(dp815
g608
S'1'
sg609
I38
sbag582
(g605
g584
NtRp816
(dp817
g608
S'1'
sg609
I39
sbag770
atRp818
ag597
((lp819
g790
ag715
ag788
atRp820
ag597
((ltRp821
ag597
((ltRp822
ag597
((ltRp823
ag597
((ltRp824
ag597
((ltRp825
ag597
((ltRp826
ag597
((lp827
g790
ag788
atRp828
ag597
((lp829
g582
(g605
g584
NtRp830
(dp831
g608
S'1'
sg609
I25
sbag790
ag788
ag582
(g605
g584
NtRp832
(dp833
g608
S'0'
sg609
I160
sbatRp834
ag597
((ltRp835
ag597
((ltRp836
ag597
((ltRp837
ag597
((ltRp838
ag597
((ltRp839
ag597
((ltRp840
ag597
((lp841
g582
(g605
g584
NtRp842
(dp843
g608
S'1'
sg609
I24
sbag582
(g605
g584
NtRp844
(dp845
g608
S'0'
sg609
I159
sbag582
(g605
g584
NtRp846
(dp847
g608
S'0'
sg609
I158
sbag582
(g605
g584
NtRp848
(dp849
g608
S'1'
sg609
I23
sbatRp850
ag597
((lp851
g842
ag830
ag844
ag832
atRp852
ag597
((ltRp853
ag597
((ltRp854
ag597
((ltRp855
ag597
((ltRp856
ag597
((ltRp857
ag597
((ltRp858
ag597
((lp859
g846
ag582
(g605
g584
NtRp860
(dp861
g608
S'0'
sg609
I157
sbag582
(g605
g584
NtRp862
(dp863
g608
S'1'
sg609
I22
sbag848
atRp864
ag597
((ltRp865
ag597
((ltRp866
ag597
((ltRp867
ag597
((ltRp868
ag597
((ltRp869
ag597
((ltRp870
ag597
((ltRp871
ag597
((lp872
g860
ag582
(g605
g584
NtRp873
(dp874
g608
S'1'
sg609
I21
sbag862
ag582
(g605
g584
NtRp875
(dp876
g608
S'0'
sg609
I156
sbatRp877
ag597
((ltRp878
ag597
((ltRp879
ag597
((ltRp880
ag597
((ltRp881
ag597
((ltRp882
ag597
((ltRp883
ag597
((ltRp884
ag597
((lp885
g873
ag875
atRp886
ag597
((ltRp887
ag597
((ltRp888
ag597
((ltRp889
ag597
((ltRp890
ag597
((ltRp891
ag597
((ltRp892
ag597
((lp893
g582
(g605
g584
NtRp894
(dp895
g608
S'1'
sg609
I17
sbag582
(g605
g584
NtRp896
(dp897
g608
S'1'
sg609
I18
sbag582
(g605
g584
NtRp898
(dp899
g608
S'1'
sg609
I19
sbag582
(g605
g584
NtRp900
(dp901
g608
S'1'
sg609
I20
sbag582
(g605
g584
NtRp902
(dp903
g608
S'0'
sg609
I152
sbag582
(g605
g584
NtRp904
(dp905
g608
S'0'
sg609
I153
sbag582
(g605
g584
NtRp906
(dp907
g608
S'0'
sg609
I154
sbag582
(g605
g584
NtRp908
(dp909
g608
S'0'
sg609
I155
sbatRp910
ag597
((lp911
g908
ag900
ag873
ag875
atRp912
ag597
((ltRp913
ag597
((ltRp914
ag597
((ltRp915
ag597
((ltRp916
ag597
((ltRp917
ag597
((ltRp918
ag597
((lp919
g582
(g605
g584
NtRp920
(dp921
g608
S'1'
sg609
I16
sbag894
ag582
(g605
g584
NtRp922
(dp923
g608
S'0'
sg609
I149
sbag582
(g605
g584
NtRp924
(dp925
g608
S'0'
sg609
I150
sbag582
(g605
g584
NtRp926
(dp927
g608
S'0'
sg609
I151
sbag902
ag582
(g605
g584
NtRp928
(dp929
g608
S'1'
sg609
I14
sbag582
(g605
g584
NtRp930
(dp931
g608
S'1'
sg609
I15
sbatRp932
ag597
((ltRp933
ag597
((ltRp934
ag597
((ltRp935
ag597
((ltRp936
ag597
((ltRp937
ag597
((ltRp938
ag597
((ltRp939
ag597
((lp940
g582
(g605
g584
NtRp941
(dp942
g608
S'0'
sg609
I147
sbag582
(g605
g584
NtRp943
(dp944
g608
S'0'
sg609
I148
sbag922
ag582
(g605
g584
NtRp945
(dp946
g608
S'1'
sg609
I12
sbag582
(g605
g584
NtRp947
(dp948
g608
S'1'
sg609
I13
sbag928
atRp949
ag597
((ltRp950
ag597
((ltRp951
ag597
((ltRp952
ag597
((ltRp953
ag597
((ltRp954
ag597
((ltRp955
ag597
((lp956
g582
(g605
g584
NtRp957
(dp958
g608
S'1'
sg609
I11
sbag582
(g605
g584
NtRp959
(dp960
g608
S'0'
sg609
I146
sbatRp961
ag597
((lp962
g941
ag957
ag945
ag959
atRp963
ag597
((ltRp964
ag597
((ltRp965
ag597
((ltRp966
ag597
((ltRp967
ag597
((ltRp968
ag597
((ltRp969
ag597
((lp970
g582
(g605
g584
NtRp971
(dp972
g608
S'1'
sg609
I10
sbag957
ag582
(g605
g584
NtRp973
(dp974
g608
S'0'
sg609
I145
sbag959
atRp975
ag597
((lp976
g957
ag959
atRp977
ag597
((ltRp978
ag597
((ltRp979
ag597
((ltRp980
ag597
((ltRp981
ag597
((ltRp982
ag597
((ltRp983
ag597
((lp984
g971
ag973
atRp985
ag597
((ltRp986
ag597
((ltRp987
ag597
((ltRp988
ag597
((ltRp989
ag597
((ltRp990
ag597
((ltRp991
ag597
((lp992
g582
(g605
g584
NtRp993
(dp994
g608
S'1'
sg609
I8
sbag582
(g605
g584
NtRp995
(dp996
g608
S'0'
sg609
I143
sbatRp997
ag597
((lp998
g995
ag582
(g605
g584
NtRp999
(dp1000
g608
S'0'
sg609
I144
sbag973
ag993
ag582
(g605
g584
NtRp1001
(dp1002
g608
S'1'
sg609
I9
sbag971
atRp1003
ag597
((ltRp1004
ag597
((ltRp1005
ag597
((ltRp1006
ag597
((ltRp1007
ag597
((ltRp1008
ag597
((ltRp1009
ag597
((lp1010
g993
ag995
atRp1011
ag597
((lp1012
g993
ag995
atRp1013
ag597
((ltRp1014
ag597
((ltRp1015
ag597
((ltRp1016
ag597
((ltRp1017
ag597
((ltRp1018
ag597
((ltRp1019
ag597
((lp1020
g993
ag995
ag582
(g605
g584
NtRp1021
(dp1022
g608
S'0'
sg609
I142
sbag582
(g605
g584
NtRp1023
(dp1024
g608
S'1'
sg609
I7
sbatRp1025
ag597
((lp1026
g993
ag995
atRp1027
ag597
((ltRp1028
ag597
((ltRp1029
ag597
((ltRp1030
ag597
((ltRp1031
ag597
((ltRp1032
ag597
((ltRp1033
ag597
((lp1034
g1021
ag1023
atRp1035
ag597
((ltRp1036
ag597
((ltRp1037
ag597
((ltRp1038
ag597
((ltRp1039
ag597
((ltRp1040
ag597
((ltRp1041
ag597
((lp1042
g582
(g605
g584
NtRp1043
(dp1044
g608
S'0'
sg609
I141
sbag582
(g605
g584
NtRp1045
(dp1046
g608
S'1'
sg609
I6
sbatRp1047
ag597
((lp1048
g1021
ag1043
ag1045
ag1023
atRp1049
ag597
((ltRp1050
ag597
((ltRp1051
ag597
((ltRp1052
ag597
((ltRp1053
ag597
((ltRp1054
ag597
((ltRp1055
ag597
((lp1056
g1043
ag1045
atRp1057
ag597
((lp1058
g1043
ag1045
atRp1059
ag597
((ltRp1060
ag597
((ltRp1061
ag597
((ltRp1062
ag597
((ltRp1063
ag597
((ltRp1064
ag597
((lp1065
g582
(g605
g584
NtRp1066
(dp1067
g608
S'1'
sg609
I5
sbag582
(g605
g584
NtRp1068
(dp1069
g608
S'0'
sg609
I140
sbatRp1070
ag597
((lp1071
g1043
ag1066
ag1045
ag1068
atRp1072
ag597
((lp1073
g1043
ag1045
atRp1074
ag597
((ltRp1075
ag597
((ltRp1076
ag597
((ltRp1077
ag597
((ltRp1078
ag597
((ltRp1079
ag597
((lp1080
g1066
ag1068
atRp1081
ag597
((lp1082
g1066
ag1068
atRp1083
ag597
((ltRp1084
ag597
((ltRp1085
ag597
((ltRp1086
ag597
((ltRp1087
ag597
((ltRp1088
ag597
((ltRp1089
ag597
((lp1090
g1066
ag1068
atRp1091
ag597
((lp1092
g1066
ag1068
atRp1093
ag597
((ltRp1094
ag597
((ltRp1095
ag597
((ltRp1096
ag597
((ltRp1097
ag597
((ltRp1098
ag597
((ltRp1099
ag597
((lp1100
g582
(g605
g584
NtRp1101
(dp1102
g608
S'0'
sg609
I118
sbag582
(g605
g584
NtRp1103
(dp1104
g608
S'0'
sg609
I119
sbag582
(g605
g584
NtRp1105
(dp1106
g608
S'0'
sg609
I120
sbag582
(g605
g584
NtRp1107
(dp1108
g608
S'0'
sg609
I121
sbag582
(g605
g584
NtRp1109
(dp1110
g608
S'0'
sg609
I122
sbag582
(g605
g584
NtRp1111
(dp1112
g608
S'0'
sg609
I123
sbag582
(g605
g584
NtRp1113
(dp1114
g608
S'0'
sg609
I124
sbag582
(g605
g584
NtRp1115
(dp1116
g608
S'0'
sg609
I125
sbag582
(g605
g584
NtRp1117
(dp1118
g608
S'0'
sg609
I126
sbag582
(g605
g584
NtRp1119
(dp1120
g608
S'0'
sg609
I127
sbag582
(g605
g584
NtRp1121
(dp1122
g608
S'0'
sg609
I128
sbag582
(g605
g584
NtRp1123
(dp1124
g608
S'0'
sg609
I129
sbag582
(g605
g584
NtRp1125
(dp1126
g608
S'0'
sg609
I130
sbag582
(g605
g584
NtRp1127
(dp1128
g608
S'1'
sg609
I4
sbag1066
ag582
(g605
g584
NtRp1129
(dp1130
g608
S'0'
sg609
I133
sbag582
(g605
g584
NtRp1131
(dp1132
g608
S'0'
sg609
I134
sbag582
(g605
g584
NtRp1133
(dp1134
g608
S'0'
sg609
I135
sbag582
(g605
g584
NtRp1135
(dp1136
g608
S'0'
sg609
I131
sbag582
(g605
g584
NtRp1137
(dp1138
g608
S'0'
sg609
I137
sbag582
(g605
g584
NtRp1139
(dp1140
g608
S'0'
sg609
I138
sbag582
(g605
g584
NtRp1141
(dp1142
g608
S'0'
sg609
I139
sbag1068
ag582
(g605
g584
NtRp1143
(dp1144
g608
S'0'
sg609
I132
sbag582
(g605
g584
NtRp1145
(dp1146
g608
S'0'
sg609
I136
sbatRp1147
ag597
((lp1148
g582
(g605
g584
NtRp1149
(dp1150
g608
S'1'
sg609
I3
sbag1127
ag1066
ag1068
atRp1151
ag597
((ltRp1152
ag597
((ltRp1153
ag597
((ltRp1154
ag597
((ltRp1155
ag597
((ltRp1156
ag597
((ltRp1157
ag597
((lp1158
g582
(g605
g584
NtRp1159
(dp1160
g608
S'0'
sg609
I96
sbag582
(g605
g584
NtRp1161
(dp1162
g608
S'0'
sg609
I97
sbag582
(g605
g584
NtRp1163
(dp1164
g608
S'0'
sg609
I98
sbag582
(g605
g584
NtRp1165
(dp1166
g608
S'0'
sg609
I99
sbag582
(g605
g584
NtRp1167
(dp1168
g608
S'0'
sg609
I100
sbag582
(g605
g584
NtRp1169
(dp1170
g608
S'0'
sg609
I101
sbag582
(g605
g584
NtRp1171
(dp1172
g608
S'0'
sg609
I102
sbag582
(g605
g584
NtRp1173
(dp1174
g608
S'0'
sg609
I103
sbag582
(g605
g584
NtRp1175
(dp1176
g608
S'0'
sg609
I104
sbag582
(g605
g584
NtRp1177
(dp1178
g608
S'0'
sg609
I105
sbag582
(g605
g584
NtRp1179
(dp1180
g608
S'0'
sg609
I106
sbag582
(g605
g584
NtRp1181
(dp1182
g608
S'0'
sg609
I107
sbag582
(g605
g584
NtRp1183
(dp1184
g608
S'0'
sg609
I108
sbag582
(g605
g584
NtRp1185
(dp1186
g608
S'0'
sg609
I109
sbag582
(g605
g584
NtRp1187
(dp1188
g608
S'0'
sg609
I110
sbag582
(g605
g584
NtRp1189
(dp1190
g608
S'0'
sg609
I111
sbag582
(g605
g584
NtRp1191
(dp1192
g608
S'0'
sg609
I112
sbag582
(g605
g584
NtRp1193
(dp1194
g608
S'0'
sg609
I113
sbag582
(g605
g584
NtRp1195
(dp1196
g608
S'0'
sg609
I114
sbag582
(g605
g584
NtRp1197
(dp1198
g608
S'0'
sg609
I115
sbag582
(g605
g584
NtRp1199
(dp1200
g608
S'0'
sg609
I116
sbag582
(g605
g584
NtRp1201
(dp1202
g608
S'0'
sg609
I117
sbag1101
atRp1203
ag597
((lp1204
g582
(g605
g584
NtRp1205
(dp1206
g608
S'1'
sg609
I2
sbag1149
atRp1207
ag597
((lp1208
g582
(g605
g584
NtRp1209
(dp1210
g608
S'1'
sg609
I1
sbag1205
atRp1211
ag597
((lp1212
g1209
ag1205
atRp1213
ag597
((ltRp1214
ag597
((ltRp1215
ag597
((ltRp1216
ag597
((lp1217
g582
(g605
g584
NtRp1218
(dp1219
g608
S'0'
sg609
I79
sbag582
(g605
g584
NtRp1220
(dp1221
g608
S'0'
sg609
I80
sbag582
(g605
g584
NtRp1222
(dp1223
g608
S'0'
sg609
I81
sbag582
(g605
g584
NtRp1224
(dp1225
g608
S'0'
sg609
I82
sbag582
(g605
g584
NtRp1226
(dp1227
g608
S'0'
sg609
I83
sbag582
(g605
g584
NtRp1228
(dp1229
g608
S'0'
sg609
I84
sbag582
(g605
g584
NtRp1230
(dp1231
g608
S'0'
sg609
I85
sbag582
(g605
g584
NtRp1232
(dp1233
g608
S'0'
sg609
I86
sbag582
(g605
g584
NtRp1234
(dp1235
g608
S'0'
sg609
I87
sbag582
(g605
g584
NtRp1236
(dp1237
g608
S'0'
sg609
I88
sbag582
(g605
g584
NtRp1238
(dp1239
g608
S'0'
sg609
I89
sbag582
(g605
g584
NtRp1240
(dp1241
g608
S'0'
sg609
I90
sbag582
(g605
g584
NtRp1242
(dp1243
g608
S'0'
sg609
I91
sbag582
(g605
g584
NtRp1244
(dp1245
g608
S'0'
sg609
I92
sbag582
(g605
g584
NtRp1246
(dp1247
g608
S'0'
sg609
I93
sbag582
(g605
g584
NtRp1248
(dp1249
g608
S'0'
sg609
I94
sbag582
(g605
g584
NtRp1250
(dp1251
g608
S'0'
sg609
I75
sbag582
(g605
g584
NtRp1252
(dp1253
g608
S'0'
sg609
I76
sbag582
(g605
g584
NtRp1254
(dp1255
g608
S'0'
sg609
I77
sbag582
(g605
g584
NtRp1256
(dp1257
g608
S'0'
sg609
I78
sbatRp1258
ag597
((lp1259
g582
(g605
g584
NtRp1260
(dp1261
g608
S'0'
sg609
I95
sbag1159
ag1248
atRp1262
ag597
((ltRp1263
ag597
((lp1264
g1209
atRp1265
ag597
((lp1266
g1209
atRp1267
ag597
((ltRp1268
ag597
((ltRp1269
ag597
((ltRp1270
ag597
((lp1271
g582
(g605
g584
NtRp1272
(dp1273
g608
S'0'
sg609
I52
sbag582
(g605
g584
NtRp1274
(dp1275
g608
S'0'
sg609
I53
sbag582
(g605
g584
NtRp1276
(dp1277
g608
S'0'
sg609
I54
sbag582
(g605
g584
NtRp1278
(dp1279
g608
S'0'
sg609
I55
sbag582
(g605
g584
NtRp1280
(dp1281
g608
S'0'
sg609
I56
sbag582
(g605
g584
NtRp1282
(dp1283
g608
S'0'
sg609
I57
sbag582
(g605
g584
NtRp1284
(dp1285
g608
S'0'
sg609
I58
sbag582
(g605
g584
NtRp1286
(dp1287
g608
S'0'
sg609
I59
sbag582
(g605
g584
NtRp1288
(dp1289
g608
S'0'
sg609
I60
sbag582
(g605
g584
NtRp1290
(dp1291
g608
S'0'
sg609
I61
sbag582
(g605
g584
NtRp1292
(dp1293
g608
S'0'
sg609
I62
sbag582
(g605
g584
NtRp1294
(dp1295
g608
S'0'
sg609
I63
sbag582
(g605
g584
NtRp1296
(dp1297
g608
S'0'
sg609
I64
sbag582
(g605
g584
NtRp1298
(dp1299
g608
S'0'
sg609
I65
sbag582
(g605
g584
NtRp1300
(dp1301
g608
S'0'
sg609
I66
sbag582
(g605
g584
NtRp1302
(dp1303
g608
S'0'
sg609
I67
sbag582
(g605
g584
NtRp1304
(dp1305
g608
S'0'
sg609
I68
sbag582
(g605
g584
NtRp1306
(dp1307
g608
S'0'
sg609
I69
sbag582
(g605
g584
NtRp1308
(dp1309
g608
S'0'
sg609
I70
sbag582
(g605
g584
NtRp1310
(dp1311
g608
S'0'
sg609
I71
sbag582
(g605
g584
NtRp1312
(dp1313
g608
S'0'
sg609
I72
sbag582
(g605
g584
NtRp1314
(dp1315
g608
S'0'
sg609
I73
sbag582
(g605
g584
NtRp1316
(dp1317
g608
S'0'
sg609
I74
sbag1250
atRp1318
ag597
((lp1319
g582
(g605
g584
NtRp1320
(dp1321
g608
S'0'
sg609
I47
sbag582
(g605
g584
NtRp1322
(dp1323
g608
S'0'
sg609
I48
sbag582
(g605
g584
NtRp1324
(dp1325
g608
S'0'
sg609
I49
sbag582
(g605
g584
NtRp1326
(dp1327
g608
S'0'
sg609
I50
sbag582
(g605
g584
NtRp1328
(dp1329
g608
S'0'
sg609
I51
sbag1272
ag582
(g605
g584
NtRp1330
(dp1331
g608
S'0'
sg609
I34
sbag582
(g605
g584
NtRp1332
(dp1333
g608
S'0'
sg609
I35
sbag582
(g605
g584
NtRp1334
(dp1335
g608
S'0'
sg609
I36
sbag582
(g605
g584
NtRp1336
(dp1337
g608
S'0'
sg609
I37
sbag582
(g605
g584
NtRp1338
(dp1339
g608
S'0'
sg609
I38
sbag582
(g605
g584
NtRp1340
(dp1341
g608
S'0'
sg609
I39
sbag582
(g605
g584
NtRp1342
(dp1343
g608
S'0'
sg609
I40
sbag582
(g605
g584
NtRp1344
(dp1345
g608
S'0'
sg609
I41
sbag582
(g605
g584
NtRp1346
(dp1347
g608
S'0'
sg609
I42
sbag582
(g605
g584
NtRp1348
(dp1349
g608
S'0'
sg609
I43
sbag582
(g605
g584
NtRp1350
(dp1351
g608
S'0'
sg609
I44
sbag582
(g605
g584
NtRp1352
(dp1353
g608
S'0'
sg609
I45
sbag582
(g605
g584
NtRp1354
(dp1355
g608
S'0'
sg609
I46
sbatRp1356
ag597
((ltRp1357
ag597
((lp1358
g1209
atRp1359
ag597
((lp1360
g1209
atRp1361
ag597
((ltRp1362
ag597
((ltRp1363
ag597
((ltRp1364
ag597
((ltRp1365
ag597
((lp1366
g582
(g605
g584
NtRp1367
(dp1368
g608
S'0'
sg609
I29
sbag582
(g605
g584
NtRp1369
(dp1370
g608
S'0'
sg609
I30
sbag582
(g605
g584
NtRp1371
(dp1372
g608
S'0'
sg609
I31
sbag582
(g605
g584
NtRp1373
(dp1374
g608
S'0'
sg609
I32
sbag582
(g605
g584
NtRp1375
(dp1376
g608
S'0'
sg609
I33
sbag1330
atRp1377
ag597
((lp1378
g582
(g605
g584
NtRp1379
(dp1380
g608
S'0'
sg609
I7
sbag582
(g605
g584
NtRp1381
(dp1382
g608
S'0'
sg609
I8
sbag582
(g605
g584
NtRp1383
(dp1384
g608
S'0'
sg609
I9
sbag582
(g605
g584
NtRp1385
(dp1386
g608
S'0'
sg609
I10
sbag582
(g605
g584
NtRp1387
(dp1388
g608
S'0'
sg609
I11
sbag582
(g605
g584
NtRp1389
(dp1390
g608
S'0'
sg609
I12
sbag582
(g605
g584
NtRp1391
(dp1392
g608
S'0'
sg609
I13
sbag582
(g605
g584
NtRp1393
(dp1394
g608
S'0'
sg609
I14
sbag582
(g605
g584
NtRp1395
(dp1396
g608
S'0'
sg609
I15
sbag582
(g605
g584
NtRp1397
(dp1398
g608
S'0'
sg609
I16
sbag582
(g605
g584
NtRp1399
(dp1400
g608
S'0'
sg609
I17
sbag582
(g605
g584
NtRp1401
(dp1402
g608
S'0'
sg609
I18
sbag582
(g605
g584
NtRp1403
(dp1404
g608
S'0'
sg609
I19
sbag582
(g605
g584
NtRp1405
(dp1406
g608
S'0'
sg609
I20
sbag582
(g605
g584
NtRp1407
(dp1408
g608
S'0'
sg609
I21
sbag582
(g605
g584
NtRp1409
(dp1410
g608
S'0'
sg609
I22
sbag582
(g605
g584
NtRp1411
(dp1412
g608
S'0'
sg609
I23
sbag582
(g605
g584
NtRp1413
(dp1414
g608
S'0'
sg609
I24
sbag582
(g605
g584
NtRp1415
(dp1416
g608
S'0'
sg609
I25
sbag582
(g605
g584
NtRp1417
(dp1418
g608
S'0'
sg609
I26
sbag582
(g605
g584
NtRp1419
(dp1420
g608
S'0'
sg609
I27
sbag582
(g605
g584
NtRp1421
(dp1422
g608
S'0'
sg609
I28
sbag1367
atRp1423
ag597
((lp1424
g582
(g605
g584
NtRp1425
(dp1426
g608
S'0'
sg609
I0
sbag582
(g605
g584
NtRp1427
(dp1428
g608
S'1'
sg609
I0
sbag1209
ag582
(g605
g584
NtRp1429
(dp1430
g608
S'0'
sg609
I1
sbag582
(g605
g584
NtRp1431
(dp1432
g608
S'0'
sg609
I2
sbag582
(g605
g584
NtRp1433
(dp1434
g608
S'0'
sg609
I3
sbag582
(g605
g584
NtRp1435
(dp1436
g608
S'0'
sg609
I4
sbag582
(g605
g584
NtRp1437
(dp1438
g608
S'0'
sg609
I5
sbag582
(g605
g584
NtRp1439
(dp1440
g608
S'0'
sg609
I6
sbag1379
atRp1441
ag597
((lp1442
g1209
atRp1443
ag597
((ltRp1444
ag597
((ltRp1445
ag597
((ltRp1446
asS'si_gridsquaresys'
p1447
g582
(cgrid
GridSquareSystem
p1448
g584
NtRp1449
(dp1450
S'lngstep'
p1451
F0.00125
sS'southwest_gridsquare'
p1452
g582
(cgrid
GridSquare
p1453
g584
NtRp1454
(dp1455
S'sys'
p1456
g1449
sS'gridlat'
p1457
I50
sS'gridlng'
p1458
I122
sbsS'lngref'
p1459
F-79.457939102255295
sS'latstep'
p1460
F0.00087500000000000002
sS'latref'
p1461
F43.626966968592633
sS'northeast_gridsquare'
p1462
g582
(g1453
g584
NtRp1463
(dp1464
g1456
g1449
sg1457
I78
sg1458
I129
sbsbsS'si_plinename_to_gridsquareidxes'
p1465
(dp1466
S'1'
g597
((lp1467
I131
aI132
aI6
aI139
aI140
aI14
aI147
aI21
aI22
aI154
aI155
aI29
aI30
aI31
aI162
aI163
aI38
aI39
aI169
aI170
aI171
aI46
aI47
aI177
aI178
aI54
aI185
aI186
aI62
aI193
aI194
aI70
aI202
aI203
aI204
aI77
aI78
aI211
aI212
aI85
aI100
aI219
aI220
aI93
aI227
aI228
aI101
aI108
aI109
aI116
aI123
aI124
atRp1468
sS'0'
g597
((lp1469
I131
aI132
aI6
aI7
aI139
aI140
aI15
aI147
aI22
aI23
aI154
aI155
aI30
aI31
aI162
aI163
aI38
aI39
aI169
aI170
aI171
aI46
aI47
aI177
aI178
aI54
aI185
aI186
aI62
aI193
aI194
aI70
aI201
aI77
aI78
aI208
aI209
aI85
aI216
aI217
aI93
aI225
aI226
aI227
aI100
aI101
aI108
aI109
aI116
aI123
aI124
atRp1470
ssbsS'version'
p1471
I0
sS'datazoom_to_dir_to_routeptaddr_to_mofr'
p1472
(dp1473
I0
(lp1474
(lp1475
I0
aI298
aI2052
aI3143
aI3237
aa(lp1476
I0
aI286
aI669
aI2709
aI2871
aI3237
aasN(lp1477
(lp1478
I0
aF7.8332492508743492
aF12.606058968607336
aF17.377692896932771
aF22.15050445475314
aF26.922140054274927
aF31.694953455219192
aF36.466590725627086
aF41.239405967766828
aF46.011044909370042
aF50.783861994729293
aF55.555502608136493
aF60.328321533384432
aF65.099963818605403
aF69.872784586876037
aF74.644428544519442
aF79.417251152871856
aF84.188896781708536
aF88.961721234386701
aF93.733368532877762
aF98.50619482462335
aF103.27784379614448
aF108.050671932019
aF112.82232257442213
aF117.59515255027722
aF122.36680486449104
aF127.13963668244821
aF131.91129066969057
aF136.68412432873643
aF141.45577998625006
aF146.22861548850611
aF151.00027281689972
aF155.77311015932756
aF160.54476915982926
aF165.31760834628295
aF170.08926901797329
aF174.86211004440196
aF179.6337723875902
aF184.40661525611534
aF189.17827927232904
aF193.95112398203474
aF198.72278966820693
aF203.49563622183729
aF208.2673035785869
aF213.04015197146845
aF217.81182100185117
aF222.58467123783797
aF227.35634193848736
aF232.12919401565097
aF236.90086638717568
aF241.67372030633271
aF246.44539435118955
aF251.2182501113266
aF255.98992582675831
aF260.76278342898439
aF265.53446081651856
aF270.30732025991773
aF275.07899931924408
aF279.8518606057429
aF284.62354133502316
aF289.39640446158324
aF294.16808686327414
aF298.88121877965494
aF303.64727692163956
aF308.39041720354123
aF313.15647560545511
aF317.89961670752018
aF322.66567537090759
aF327.40881729575614
aF332.17487622103079
aF336.91801896567188
aF341.68407815283467
aF346.42722171816854
aF351.1932811651206
aF355.93642555449941
aF360.70248526319784
aF365.44563047281332
aF370.21169044228981
aF374.95483647359123
aF379.72089670495939
aF384.46404355622445
aF389.23010404907239
aF393.97325172246991
aF398.73931247651137
aF403.48246096968467
aF408.24852198492056
aF412.99167130130718
aF417.75773257633858
aF422.50088271485043
aF427.26694425149088
aF432.01009521067402
aF436.77615700949855
aF441.51930879035086
aF446.28537085051693
aF451.02852345086484
aF455.79458577237335
aF460.53773919465397
aF465.30380177736225
aF470.0469560211219
aF474.81301886503081
aF479.55617393045014
aF484.32223703471715
aF489.06539292187898
aF493.83145628749196
aF498.57461299585736
aF503.34067662491697
aF508.08383415348322
aF512.84989804234715
aF517.5930563923805
aF522.35912054230596
aF527.10227971462132
aF531.8683441261835
aF536.61150411887547
aF541.37756879080098
aF546.12072960558726
aF550.88679453997679
aF555.62995617585455
aF560.39602137089639
aF565.1391838290466
aF569.90524928529794
aF574.64841256318095
aF579.41447828078628
aF584.15764238075394
aF588.923708359427
aF593.66687328102569
aF598.43293952064175
aF603.17610526260034
aF607.94217176468578
aF612.6853383280876
aF617.45140509083058
aF622.19457247567311
aF626.96063949948746
aF631.7038077055854
aF636.46987499131535
aF641.2130440190324
aF645.97911156542261
aF650.72228141457322
aF655.48834922148103
aF660.23151989179462
aF664.99758796006438
aF669.74075945225809
aF965.578801183927
aF1181.5210016774292
aF1330.9983340984902
aF1505.6911729750127
aF1570.1981199160141
aF1771.9017803165784
aF1877.7889833902168
aF1937.3554632683993
aF1995.437594937116
aF2028.2161331313193
aF2052.4989314915761
aF2106.8855860574313
aF2147.52573903967
aF2160.5249806524866
aF2176.6693213898748
aF2192.2983391786579
aF2323.916615136493
aF2488.8023681682416
aF2530.2319531321186
aF2586.5448342726704
aF2709.0361953295469
aF2779.414443812434
aF2911.0423280182422
aF3082.3655964929376
aF3143.2046947776143
aF3237.5031955747231
aa(lp1479
I0
aF10.359372497079072
aF286.56623367351625
aF479.28764344493447
aF560.22741258567817
aF669.73987682434199
aF965.5779185560109
aF1181.5201190495131
aF1330.9974514705741
aF1505.6902903470966
aF1570.197237288098
aF1771.9008976886623
aF1877.7881007623007
aF1937.3545806404832
aF1995.4367123091999
aF2028.2152505034032
aF2052.4980488636597
aF2106.884703429515
aF2147.5248564117537
aF2160.5240980245703
aF2176.6684387619584
aF2192.2974565507416
aF2323.9157325085766
aF2488.8014855403253
aF2530.2310705042023
aF2586.5439516447541
aF2709.0353127016306
aF2779.4135611845177
aF2784.8489699483184
aF2790.2839633066428
aF2795.7193744698147
aF2801.1543700304796
aF2806.5897835911132
aF2812.0247813547485
aF2817.4601973126187
aF2822.8951972798181
aF2828.330615635934
aF2833.765617804544
aF2839.2010385590156
aF2844.6360429311881
aF2850.0714660821059
aF2855.5064726581727
aF2860.941898208453
aF2866.3769069859281
aF2871.7606405908787
aF2877.5438280174753
aF2883.3171091611957
aF2889.1002970176305
aF2894.8735792625816
aF2900.6567675507417
aF2906.4300508936926
aF2912.2132396151824
aF2917.9865240563586
aF2923.7697132078538
aF2929.5429987493767
aF2935.3261883310424
aF2941.0994749737829
aF2946.8826649873872
aF2952.6559527276972
aF2958.3857915914655
aF2963.8663229113249
aF2969.3335623310741
aF2974.8140940126555
aF2980.2813344215256
aF2985.7618664638944
aF2991.2291078606181
aF2996.7096402641669
aF3002.1768826495841
aF3007.6574154157111
aF3013.1246587891746
aF3018.6051919157849
aF3024.0724362779356
aF3029.5529697658831
aF3035.0202151160743
aF3040.5007489657514
aF3045.9679953048467
aF3051.4485295150107
aF3056.9157768432055
aF3062.3963114148646
aF3067.8635597308921
aF3073.3440946623414
aF3078.8113439689737
aF3084.2918792623113
aF3089.7591295563243
aF3095.2396652117054
aF3100.7069164933191
aF3106.1874525104367
aF3111.654704781135
aF3117.135241158901
aF3122.6024944182591
aF3128.0830311565205
aF3133.5502854043375
aF3139.0308225043391
aF3144.4980777416527
aF3149.9786152030051
aF3155.4458714283255
aF3160.926409250023
aF3166.3936664648581
aF3171.8742046472098
aF3177.3414628500459
aF3182.8220013953037
aF3188.2892605857164
aF3193.7697994918676
aF3199.2370596709188
aF3204.7175989391258
aF3210.1848601068132
aF3215.6653997356793
aF3221.1326618919993
aF3226.6132018812177
aF3232.0804650263904
aF3237.5032526809296
aasI2
(lp1480
(lp1481
I0
aI298
aI1330
aI1505
aI1570
aI1877
aI1937
aI2028
aI2052
aI2160
aI2192
aI2323
aI2488
aI2530
aI2709
aI2779
aI3143
aI3237
aa(lp1482
I0
aI10
aI286
aI479
aI560
aI669
aI1330
aI1505
aI1570
aI1877
aI1937
aI2028
aI2052
aI2160
aI2192
aI2323
aI2488
aI2530
aI2709
aI2871
aI3237
aasI3
(lp1483
(lp1484
I0
aI12
aI298
aI664
aI965
aI1181
aI1330
aI1505
aI1570
aI1877
aI1937
aI1995
aI2028
aI2052
aI2147
aI2160
aI2176
aI2192
aI2323
aI2488
aI2530
aI2586
aI2709
aI2779
aI3143
aI3237
aa(lp1485
I0
aI10
aI286
aI479
aI560
aI669
aI965
aI1181
aI1330
aI1505
aI1570
aI1877
aI1937
aI1995
aI2028
aI2052
aI2147
aI2160
aI2176
aI2192
aI2323
aI2488
aI2530
aI2586
aI2709
aI2871
aI3237
aasI1
(lp1486
(lp1487
I0
aI298
aI1877
aI2052
aI2160
aI2709
aI2779
aI3143
aI3237
aa(lp1488
I0
aI286
aI479
aI560
aI669
aI1877
aI2028
aI2160
aI2709
aI2871
aI3237
aassb.