(iroutes
RouteInfo
p1
(dp2
S'is_split_by_dir'
p3
I01
sS'name'
p4
S'junction'
p5
sS'datazoom_to_dir_to_routepts'
p6
(dp7
I0
(dp8
I0
(lp9
(igeom
LatLng
p10
(dp11
S'lat'
p12
F43.665789750000002
sS'lng'
p13
F-79.482752680000004
sba(igeom
LatLng
p14
(dp15
g12
F43.664689619999997
sg13
F-79.459261889999993
sba(igeom
LatLng
p16
(dp17
g12
F43.66023843
sg13
F-79.453800920000006
sba(igeom
LatLng
p18
(dp19
g12
F43.656854209999999
sg13
F-79.452618060000006
sba(igeom
LatLng
p20
(dp21
g12
F43.656726140000004
sg13
F-79.453817009999995
sbasI1
(lp22
(igeom
LatLng
p23
(dp24
g12
F43.665789750000002
sg13
F-79.482752680000004
sba(igeom
LatLng
p25
(dp26
g12
F43.664689619999997
sg13
F-79.459261889999993
sba(igeom
LatLng
p27
(dp28
g12
F43.66023843
sg13
F-79.453800920000006
sba(igeom
LatLng
p29
(dp30
g12
F43.657160249999997
sg13
F-79.452683320000006
sba(igeom
LatLng
p31
(dp32
g12
F43.656726140000004
sg13
F-79.453817009999995
sbassN(dp33
I0
(lp34
g10
a(igeom
LatLng
p35
(dp36
g12
F43.665770153999645
sg13
F-79.482761745160232
sba(igeom
LatLng
p37
(dp38
g12
F43.665750557999999
sg13
F-79.482752680000004
sba(igeom
LatLng
p39
(dp40
g12
F43.66573096199965
sg13
F-79.48276174515432
sba(igeom
LatLng
p41
(dp42
g12
F43.665711366000004
sg13
F-79.482752680000004
sba(igeom
LatLng
p43
(dp44
g12
F43.66569176999964
sg13
F-79.482761745148395
sba(igeom
LatLng
p45
(dp46
g12
F43.665672174000001
sg13
F-79.482752680000004
sba(igeom
LatLng
p47
(dp48
g12
F43.665652577999637
sg13
F-79.482761745142469
sba(igeom
LatLng
p49
(dp50
g12
F43.665632982000005
sg13
F-79.482752680000004
sba(igeom
LatLng
p51
(dp52
g12
F43.665613385999634
sg13
F-79.482761745136557
sba(igeom
LatLng
p53
(dp54
g12
F43.665593790000003
sg13
F-79.482752680000004
sba(igeom
LatLng
p55
(dp56
g12
F43.665586586361933
sg13
F-79.482725569041719
sba(igeom
LatLng
p57
(dp58
g12
F43.665592495833337
sg13
F-79.482698141666674
sba(igeom
LatLng
p59
(dp60
g12
F43.665585292195267
sg13
F-79.482671030708374
sba(igeom
LatLng
p61
(dp62
g12
F43.665591201666672
sg13
F-79.482643603333344
sba(igeom
LatLng
p63
(dp64
g12
F43.665583998028595
sg13
F-79.48261649237503
sba(igeom
LatLng
p65
(dp66
g12
F43.665589907499999
sg13
F-79.482589064999999
sba(igeom
LatLng
p67
(dp68
g12
F43.665582703861929
sg13
F-79.482561954041699
sba(igeom
LatLng
p69
(dp70
g12
F43.665588613333334
sg13
F-79.482534526666669
sba(igeom
LatLng
p71
(dp72
g12
F43.665581409695264
sg13
F-79.482507415708369
sba(igeom
LatLng
p73
(dp74
g12
F43.665587319166669
sg13
F-79.482479988333338
sba(igeom
LatLng
p75
(dp76
g12
F43.665580115528599
sg13
F-79.482452877375039
sba(igeom
LatLng
p77
(dp78
g12
F43.665586024999996
sg13
F-79.482425449999994
sba(igeom
LatLng
p79
(dp80
g12
F43.665578821361919
sg13
F-79.482398339041694
sba(igeom
LatLng
p81
(dp82
g12
F43.665584730833331
sg13
F-79.482370911666663
sba(igeom
LatLng
p83
(dp84
g12
F43.665577527195254
sg13
F-79.48234380070835
sba(igeom
LatLng
p85
(dp86
g12
F43.665583436666665
sg13
F-79.482316373333333
sba(igeom
LatLng
p87
(dp88
g12
F43.665576233028588
sg13
F-79.482289262375019
sba(igeom
LatLng
p89
(dp90
g12
F43.6655821425
sg13
F-79.482261835000003
sba(igeom
LatLng
p91
(dp92
g12
F43.66557493886193
sg13
F-79.482234724041675
sba(igeom
LatLng
p93
(dp94
g12
F43.665580848333335
sg13
F-79.482207296666672
sba(igeom
LatLng
p95
(dp96
g12
F43.665573644695257
sg13
F-79.482180185708344
sba(igeom
LatLng
p97
(dp98
g12
F43.665579554166662
sg13
F-79.482152758333328
sba(igeom
LatLng
p99
(dp100
g12
F43.665572350528592
sg13
F-79.482125647375
sba(igeom
LatLng
p101
(dp102
g12
F43.665578259999997
sg13
F-79.482098219999997
sba(igeom
LatLng
p103
(dp104
g12
F43.665597669999997
sg13
F-79.480601550000003
sba(igeom
LatLng
p105
(dp106
g12
F43.66558603
sg13
F-79.478901030000003
sba(igeom
LatLng
p107
(dp108
g12
F43.665543999999997
sg13
F-79.473236
sba(igeom
LatLng
p109
(dp110
g12
F43.665458000000001
sg13
F-79.470302000000004
sba(igeom
LatLng
p111
(dp112
g12
F43.665419159999999
sg13
F-79.464540479999997
sba(igeom
LatLng
p113
(dp114
g12
F43.665357069999999
sg13
F-79.4622016
sba(igeom
LatLng
p115
(dp116
g12
F43.665333789999998
sg13
F-79.461777810000001
sba(igeom
LatLng
p117
(dp118
g12
F43.664903049999999
sg13
F-79.460082650000004
sbag14
a(igeom
LatLng
p119
(dp120
g12
F43.664231710000003
sg13
F-79.458467959999993
sba(igeom
LatLng
p121
(dp122
g12
F43.663428420000002
sg13
F-79.456992749999998
sba(igeom
LatLng
p123
(dp124
g12
F43.66307527
sg13
F-79.456542130000003
sba(igeom
LatLng
p125
(dp126
g12
F43.66235734
sg13
F-79.455812570000006
sba(igeom
LatLng
p127
(dp128
g12
F43.661049519999999
sg13
F-79.454541210000002
sba(igeom
LatLng
p129
(dp130
g12
F43.66044411
sg13
F-79.453951119999999
sbag16
a(igeom
LatLng
p131
(dp132
g12
F43.659462249999997
sg13
F-79.453462959999996
sba(igeom
LatLng
p133
(dp134
g12
F43.658336769999998
sg13
F-79.452980159999996
sba(igeom
LatLng
p135
(dp136
g12
F43.658134959999998
sg13
F-79.452921149999995
sba(igeom
LatLng
p137
(dp138
g12
F43.657160249999997
sg13
F-79.452683320000006
sba(igeom
LatLng
p139
(dp140
g12
F43.656993929999999
sg13
F-79.4526422
sbag18
ag20
asI1
(lp141
g23
a(igeom
LatLng
p142
(dp143
g12
F43.665884169999998
sg13
F-79.482609260000004
sba(igeom
LatLng
p144
(dp145
g12
F43.66583644
sg13
F-79.482412420000003
sba(igeom
LatLng
p146
(dp147
g12
F43.665589910000001
sg13
F-79.482318160000005
sba(igeom
LatLng
p148
(dp149
g12
F43.665578259999997
sg13
F-79.482098219999997
sba(igeom
LatLng
p150
(dp151
g12
F43.665597669999997
sg13
F-79.480601550000003
sba(igeom
LatLng
p152
(dp153
g12
F43.66558603
sg13
F-79.478901030000003
sba(igeom
LatLng
p154
(dp155
g12
F43.665543999999997
sg13
F-79.473236
sba(igeom
LatLng
p156
(dp157
g12
F43.665458000000001
sg13
F-79.470302000000004
sba(igeom
LatLng
p158
(dp159
g12
F43.665419159999999
sg13
F-79.464540479999997
sba(igeom
LatLng
p160
(dp161
g12
F43.665357069999999
sg13
F-79.4622016
sba(igeom
LatLng
p162
(dp163
g12
F43.665333789999998
sg13
F-79.461777810000001
sba(igeom
LatLng
p164
(dp165
g12
F43.664903049999999
sg13
F-79.460082650000004
sbag25
a(igeom
LatLng
p166
(dp167
g12
F43.664231710000003
sg13
F-79.458467959999993
sba(igeom
LatLng
p168
(dp169
g12
F43.663428420000002
sg13
F-79.456992749999998
sba(igeom
LatLng
p170
(dp171
g12
F43.66307527
sg13
F-79.456542130000003
sba(igeom
LatLng
p172
(dp173
g12
F43.66235734
sg13
F-79.455812570000006
sba(igeom
LatLng
p174
(dp175
g12
F43.661049519999999
sg13
F-79.454541210000002
sba(igeom
LatLng
p176
(dp177
g12
F43.66044411
sg13
F-79.453951119999999
sbag27
a(igeom
LatLng
p178
(dp179
g12
F43.659462249999997
sg13
F-79.453462959999996
sba(igeom
LatLng
p180
(dp181
g12
F43.658336769999998
sg13
F-79.452980159999996
sba(igeom
LatLng
p182
(dp183
g12
F43.658134959999998
sg13
F-79.452921149999995
sbag29
a(igeom
LatLng
p184
(dp185
g12
F43.657162468232933
sg13
F-79.452701006371726
sba(igeom
LatLng
p186
(dp187
g12
F43.657152265121951
sg13
F-79.452711756097571
sba(igeom
LatLng
p188
(dp189
g12
F43.657154483354887
sg13
F-79.452729442468836
sba(igeom
LatLng
p190
(dp191
g12
F43.657144280243898
sg13
F-79.452740192195122
sba(igeom
LatLng
p192
(dp193
g12
F43.657146498476841
sg13
F-79.452757878565933
sba(igeom
LatLng
p194
(dp195
g12
F43.657136295365852
sg13
F-79.452768628292688
sba(igeom
LatLng
p196
(dp197
g12
F43.657138513598788
sg13
F-79.45278631466303
sba(igeom
LatLng
p198
(dp199
g12
F43.657128310487799
sg13
F-79.452797064390253
sba(igeom
LatLng
p200
(dp201
g12
F43.657130528720742
sg13
F-79.45281475076014
sba(igeom
LatLng
p202
(dp203
g12
F43.657120325609753
sg13
F-79.452825500487805
sba(igeom
LatLng
p204
(dp205
g12
F43.657122543842689
sg13
F-79.452843186857251
sba(igeom
LatLng
p206
(dp207
g12
F43.657112340731707
sg13
F-79.45285393658537
sba(igeom
LatLng
p208
(dp209
g12
F43.657114558964643
sg13
F-79.452871622954333
sba(igeom
LatLng
p210
(dp211
g12
F43.657104355853654
sg13
F-79.452882372682936
sba(igeom
LatLng
p212
(dp213
g12
F43.657106574086598
sg13
F-79.45290005905143
sba(igeom
LatLng
p214
(dp215
g12
F43.657096370975609
sg13
F-79.452910808780487
sba(igeom
LatLng
p216
(dp217
g12
F43.657098589208537
sg13
F-79.452928495148541
sba(igeom
LatLng
p218
(dp219
g12
F43.657088386097556
sg13
F-79.452939244878053
sba(igeom
LatLng
p220
(dp221
g12
F43.657090604330499
sg13
F-79.452956931245623
sba(igeom
LatLng
p222
(dp223
g12
F43.65708040121951
sg13
F-79.452967680975618
sba(igeom
LatLng
p224
(dp225
g12
F43.657082619452439
sg13
F-79.45298536734272
sba(igeom
LatLng
p226
(dp227
g12
F43.657072416341464
sg13
F-79.45299611707317
sba(igeom
LatLng
p228
(dp229
g12
F43.657074634574393
sg13
F-79.453013803439831
sba(igeom
LatLng
p230
(dp231
g12
F43.657064431463411
sg13
F-79.453024553170735
sba(igeom
LatLng
p232
(dp233
g12
F43.657066649696354
sg13
F-79.453042239536927
sba(igeom
LatLng
p234
(dp235
g12
F43.657056446585365
sg13
F-79.453052989268301
sba(igeom
LatLng
p236
(dp237
g12
F43.657058664818301
sg13
F-79.453070675634038
sba(igeom
LatLng
p238
(dp239
g12
F43.657048461707319
sg13
F-79.453081425365852
sba(igeom
LatLng
p240
(dp241
g12
F43.657050679940248
sg13
F-79.45309911173112
sba(igeom
LatLng
p242
(dp243
g12
F43.657040476829266
sg13
F-79.453109861463417
sba(igeom
LatLng
p244
(dp245
g12
F43.657042695062202
sg13
F-79.453127547828217
sba(igeom
LatLng
p246
(dp247
g12
F43.65703249195122
sg13
F-79.453138297560983
sba(igeom
LatLng
p248
(dp249
g12
F43.657034710184163
sg13
F-79.453155983925328
sba(igeom
LatLng
p250
(dp251
g12
F43.657024507073167
sg13
F-79.453166733658534
sba(igeom
LatLng
p252
(dp253
g12
F43.65702672530611
sg13
F-79.453184420022438
sba(igeom
LatLng
p254
(dp255
g12
F43.657016522195121
sg13
F-79.4531951697561
sba(igeom
LatLng
p256
(dp257
g12
F43.657018740428057
sg13
F-79.453212856119521
sba(igeom
LatLng
p258
(dp259
g12
F43.657008537317076
sg13
F-79.453223605853665
sba(igeom
LatLng
p260
(dp261
g12
F43.657010755550012
sg13
F-79.453241292216632
sba(igeom
LatLng
p262
(dp263
g12
F43.657000552439023
sg13
F-79.453252041951217
sba(igeom
LatLng
p264
(dp265
g12
F43.657002770671966
sg13
F-79.453269728313728
sba(igeom
LatLng
p266
(dp267
g12
F43.656992567560977
sg13
F-79.453280478048782
sba(igeom
LatLng
p268
(dp269
g12
F43.656994785793913
sg13
F-79.453298164410825
sba(igeom
LatLng
p270
(dp271
g12
F43.656984582682924
sg13
F-79.453308914146334
sba(igeom
LatLng
p272
(dp273
g12
F43.65698680091586
sg13
F-79.453326600507921
sba(igeom
LatLng
p274
(dp275
g12
F43.656976597804878
sg13
F-79.453337350243899
sba(igeom
LatLng
p276
(dp277
g12
F43.656978816037807
sg13
F-79.453355036605018
sba(igeom
LatLng
p278
(dp279
g12
F43.656968612926832
sg13
F-79.453365786341465
sba(igeom
LatLng
p280
(dp281
g12
F43.656970831159761
sg13
F-79.453383472702129
sba(igeom
LatLng
p282
(dp283
g12
F43.656960628048779
sg13
F-79.453394222439016
sba(igeom
LatLng
p284
(dp285
g12
F43.656962846281729
sg13
F-79.453411908799239
sba(igeom
LatLng
p286
(dp287
g12
F43.656952643170733
sg13
F-79.453422658536581
sba(igeom
LatLng
p288
(dp289
g12
F43.656954861403669
sg13
F-79.453440344896308
sba(igeom
LatLng
p290
(dp291
g12
F43.65694465829268
sg13
F-79.453451094634147
sba(igeom
LatLng
p292
(dp293
g12
F43.65694687652563
sg13
F-79.453468780993418
sba(igeom
LatLng
p294
(dp295
g12
F43.656936673414634
sg13
F-79.453479530731698
sba(igeom
LatLng
p296
(dp297
g12
F43.656938891647563
sg13
F-79.453497217090515
sba(igeom
LatLng
p298
(dp299
g12
F43.656928688536588
sg13
F-79.453507966829264
sba(igeom
LatLng
p300
(dp301
g12
F43.656930906769539
sg13
F-79.453525653187612
sba(igeom
LatLng
p302
(dp303
g12
F43.656920703658535
sg13
F-79.453536402926829
sba(igeom
LatLng
p304
(dp305
g12
F43.656922921891486
sg13
F-79.453554089284708
sba(igeom
LatLng
p306
(dp307
g12
F43.65691271878049
sg13
F-79.453564839024381
sba(igeom
LatLng
p308
(dp309
g12
F43.656914937013433
sg13
F-79.453582525381819
sba(igeom
LatLng
p310
(dp311
g12
F43.656904733902444
sg13
F-79.453593275121946
sba(igeom
LatLng
p312
(dp313
g12
F43.656906952135387
sg13
F-79.453610961478915
sba(igeom
LatLng
p314
(dp315
g12
F43.656896749024391
sg13
F-79.453621711219512
sba(igeom
LatLng
p316
(dp317
g12
F43.656898967257334
sg13
F-79.453639397576026
sba(igeom
LatLng
p318
(dp319
g12
F43.656888764146345
sg13
F-79.453650147317063
sba(igeom
LatLng
p320
(dp321
g12
F43.656890982379295
sg13
F-79.453667833673123
sba(igeom
LatLng
p322
(dp323
g12
F43.656880779268292
sg13
F-79.453678583414629
sba(igeom
LatLng
p324
(dp325
g12
F43.656882997501242
sg13
F-79.453696269770205
sba(igeom
LatLng
p326
(dp327
g12
F43.656872794390246
sg13
F-79.453707019512194
sba(igeom
LatLng
p328
(dp329
g12
F43.656875012623196
sg13
F-79.453724705867316
sba(igeom
LatLng
p330
(dp331
g12
F43.6568648095122
sg13
F-79.453735455609745
sba(igeom
LatLng
p332
(dp333
g12
F43.656867027745136
sg13
F-79.453753141964427
sba(igeom
LatLng
p334
(dp335
g12
F43.656856824634147
sg13
F-79.453763891707311
sba(igeom
LatLng
p336
(dp337
g12
F43.65685904286709
sg13
F-79.453781578061509
sba(igeom
LatLng
p338
(dp339
g12
F43.656848839756101
sg13
F-79.453792327804877
sba(igeom
LatLng
p340
(dp341
g12
F43.656851057989044
sg13
F-79.45381001415862
sba(igeom
LatLng
p342
(dp343
g12
F43.656840854878048
sg13
F-79.453820763902428
sba(igeom
LatLng
p344
(dp345
g12
F43.656843073110998
sg13
F-79.453838450255731
sba(igeom
LatLng
p346
(dp347
g12
F43.656832870000002
sg13
F-79.453849199999993
sba(igeom
LatLng
p348
(dp349
g12
F43.656820690181753
sg13
F-79.453855002226206
sba(igeom
LatLng
p350
(dp351
g12
F43.656811524000005
sg13
F-79.453842761999994
sba(igeom
LatLng
p352
(dp353
g12
F43.656799344181749
sg13
F-79.453848564222994
sba(igeom
LatLng
p354
(dp355
g12
F43.656790178000001
sg13
F-79.453836323999994
sba(igeom
LatLng
p356
(dp357
g12
F43.656777998181752
sg13
F-79.453842126219797
sba(igeom
LatLng
p358
(dp359
g12
F43.656768832000004
sg13
F-79.453829885999994
sba(igeom
LatLng
p360
(dp361
g12
F43.656756652181762
sg13
F-79.453835688216571
sba(igeom
LatLng
p362
(dp363
g12
F43.656747486
sg13
F-79.453823447999994
sba(igeom
LatLng
p364
(dp365
g12
F43.656735306181758
sg13
F-79.453829250213374
sbag31
assI2
(dp366
I0
(lp367
g10
ag53
ag99
ag107
ag113
ag115
ag14
ag121
ag123
ag16
ag133
ag18
ag20
asI1
(lp368
g23
ag142
ag144
ag146
ag148
ag154
ag160
ag162
ag25
ag168
ag170
ag27
ag180
ag29
ag344
ag31
assI3
(dp369
I0
(lp370
g10
ag53
ag99
ag103
ag107
ag109
ag111
ag113
ag115
ag14
ag119
ag121
ag123
ag125
ag129
ag16
ag133
ag18
ag20
asI1
(lp371
g23
ag142
ag144
ag146
ag148
ag150
ag154
ag156
ag158
ag160
ag162
ag25
ag166
ag168
ag170
ag172
ag176
ag27
ag180
ag29
ag344
ag348
ag31
assI1
(dp372
I0
(lp373
g10
ag99
ag113
ag14
ag123
ag16
ag18
ag20
asI1
(lp374
g23
ag148
ag160
ag25
ag170
ag27
ag29
ag31
asssS'snapgraph'
p375
ccopy_reg
_reconstructor
p376
(csnapgraph
SnapGraph
p377
c__builtin__
object
p378
NtRp379
(dp380
S'use_vert_only_floyd_warshall'
p381
I00
sS'plinename2pts'
p382
(dp383
S'1'
g141
sS'0'
g34
ssg4
NsS'use_floyd_warshall'
p384
I00
sS'plinename_to_ptidx_to_mapl'
p385
(dp386
S'1'
(lp387
I0
aF15.58975927119908
aF32.27932153939701
aF60.705527080694523
aF78.434176529004617
aF198.77308207107126
aF335.48657491742108
aF790.93105392632469
aF1026.9936592660461
aF1490.1922537986447
aF1678.3455603586931
aF1712.5129107771586
aF1856.9533737594609
aF1927.0700833498829
aF2008.7002820265045
aF2157.1419370642839
aF2210.5528034613885
aF2309.5777924945955
aF2487.2622600887516
aF2569.587683322673
aF2595.4392960046216
aF2685.8767705648793
aF2816.8395491665024
aF2839.7636193724793
aF2949.7607936456616
aF2951.2040370789432
aF2952.6297860448753
aF2954.0730296281945
aF2955.498778686067
aF2956.9420224195446
aF2958.3677715700355
aF2959.8110154524215
aF2961.2367646955308
aF2962.6800087280753
aF2964.1057580625629
aF2965.5490022470394
aF2966.9747516723428
aF2968.4179960048409
aF2969.843745523945
aF2971.2869900055935
aF2972.7127396166957
aF2974.1559842491479
aF2975.5817339516861
aF2977.024978732401
aF2978.45072852874
aF2979.8939734582427
aF2981.3197233454553
aF2982.7629684260028
aF2984.1887184057759
aF2985.6319636355943
aF2987.0577137085479
aF2988.5009590892905
aF2989.9267092524401
aF2991.3699547820911
aF2992.7957050384794
aF2994.2389507172802
aF2995.6647010662869
aF2997.1079468952453
aF2998.5336973361345
aF2999.9769433171459
aF3001.4026938494712
aF3002.8459399783828
aF3004.2716906033843
aF3005.7149368823325
aF3007.1406875992743
aF3008.5839340293883
aF3010.0096848383287
aF3011.4529314173506
aF3012.8786823182891
aF3014.3219290473476
aF3015.7476800403424
aF3017.1909269183093
aF3018.61667800336
aF3020.0599250313635
aF3021.485676208355
aF3022.9289233877653
aF3024.3546746578795
aF3025.7979219840613
aF3027.223673347472
aF3028.6669208249396
aF3030.0926722796708
aF3031.5359199068125
aF3032.9616714524755
aF3034.4049192291291
aF3035.8306708702216
aF3037.2739187959037
aF3038.6996705284323
aF3040.1429186049172
aF3041.5686704283198
aF3043.0119186539537
aF3044.4376705710993
aF3045.8809189476565
aF3047.3066709538157
aF3048.7499194816587
aF3050.175671582123
aF3051.6189202579867
aF3053.0446724511271
aF3054.487921277027
aF3055.9136735615461
aF3057.3569225381279
aF3058.7826749135211
aF3060.2259240383646
aF3061.6516765075585
aF3063.0949257824382
aF3064.5206783435724
aF3065.9639277706247
aF3067.3896804231372
aF3068.8213971745113
aF3070.2378137579731
aF3071.6695304803952
aF3073.085947127126
aF3074.5176638185894
aF3075.9340805300108
aF3077.3657971908519
aF3078.7822139665591
aF3080.2139305974429
aF3081.6303474378401
asS'0'
(lp388
I0
aF2.2964600025907669
aF4.5929200055934851
aF6.8893800079080432
aF9.1858400119752268
aF11.482300015375312
aF13.778760017846365
aF16.075220020990894
aF18.371680023206288
aF20.668140027089908
aF22.964600028703511
aF25.286469706718158
aF27.587124247414977
aF29.908993970496233
aF32.209648555973047
aF34.531518324364654
aF36.832172955399862
aF39.154042766937991
aF41.454697443531593
aF43.776567298932548
aF46.077222021084545
aF48.399091921552106
aF50.699746689839102
aF53.021616633696922
aF55.322271447167502
aF57.644141436091928
aF59.944796294140694
aF62.266666327415422
aF64.567321231022575
aF66.88919130887642
aF69.189846256859965
aF71.511716379064111
aF73.812371373384451
aF76.134241540411452
aF78.434896578531578
aF198.77380212059822
aF335.48729496694807
aF790.93177397585168
aF1026.994379315573
aF1490.1929738481717
aF1678.3462804082201
aF1712.5136308266856
aF1856.9540938089879
aF1927.0708033994099
aF2008.7010020760315
aF2157.1426571138109
aF2210.5535235109155
aF2309.5785125441225
aF2487.2629801382786
aF2569.5884033722
aF2595.4400160541486
aF2685.8774906144063
aF2816.8402692160294
aF2839.7643394220063
aF2949.7615136951886
aF2968.5384926768079
aF2984.1868155847287
aF3081.6313759053014
assS'si_linesegaddrs_by_gridsquareidx'
p389
(lp390
c__builtin__
set
p391
((ltRp392
ag391
((ltRp393
ag391
((ltRp394
ag391
((ltRp395
ag391
((ltRp396
ag391
((ltRp397
ag391
((ltRp398
ag391
((ltRp399
ag391
((ltRp400
ag391
((ltRp401
ag391
((ltRp402
ag391
((ltRp403
ag391
((ltRp404
ag391
((ltRp405
ag391
((ltRp406
ag391
((ltRp407
ag391
((ltRp408
ag391
((ltRp409
ag391
((ltRp410
ag391
((ltRp411
ag391
((ltRp412
ag391
((ltRp413
ag391
((ltRp414
ag391
((lp415
g376
(csnapgraph
PtAddr
p416
g378
NtRp417
(dp418
S'plinename'
p419
S'1'
sS'ptidx'
p420
I80
sbag376
(g416
g378
NtRp421
(dp422
g419
S'1'
sg420
I81
sbag376
(g416
g378
NtRp423
(dp424
g419
S'1'
sg420
I82
sbag376
(g416
g378
NtRp425
(dp426
g419
S'1'
sg420
I83
sbag376
(g416
g378
NtRp427
(dp428
g419
S'1'
sg420
I84
sbag376
(g416
g378
NtRp429
(dp430
g419
S'1'
sg420
I85
sbag376
(g416
g378
NtRp431
(dp432
g419
S'1'
sg420
I86
sbag376
(g416
g378
NtRp433
(dp434
g419
S'1'
sg420
I87
sbag376
(g416
g378
NtRp435
(dp436
g419
S'1'
sg420
I88
sbag376
(g416
g378
NtRp437
(dp438
g419
S'1'
sg420
I89
sbag376
(g416
g378
NtRp439
(dp440
g419
S'1'
sg420
I90
sbag376
(g416
g378
NtRp441
(dp442
g419
S'1'
sg420
I91
sbag376
(g416
g378
NtRp443
(dp444
g419
S'1'
sg420
I92
sbag376
(g416
g378
NtRp445
(dp446
g419
S'1'
sg420
I93
sbag376
(g416
g378
NtRp447
(dp448
g419
S'1'
sg420
I94
sbag376
(g416
g378
NtRp449
(dp450
g419
S'1'
sg420
I95
sbag376
(g416
g378
NtRp451
(dp452
g419
S'1'
sg420
I96
sbag376
(g416
g378
NtRp453
(dp454
g419
S'1'
sg420
I97
sbag376
(g416
g378
NtRp455
(dp456
g419
S'1'
sg420
I98
sbag376
(g416
g378
NtRp457
(dp458
g419
S'1'
sg420
I99
sbag376
(g416
g378
NtRp459
(dp460
g419
S'1'
sg420
I100
sbag376
(g416
g378
NtRp461
(dp462
g419
S'1'
sg420
I101
sbag376
(g416
g378
NtRp463
(dp464
g419
S'1'
sg420
I102
sbag376
(g416
g378
NtRp465
(dp466
g419
S'1'
sg420
I103
sbag376
(g416
g378
NtRp467
(dp468
g419
S'1'
sg420
I104
sbag376
(g416
g378
NtRp469
(dp470
g419
S'1'
sg420
I105
sbag376
(g416
g378
NtRp471
(dp472
g419
S'1'
sg420
I106
sbag376
(g416
g378
NtRp473
(dp474
g419
S'1'
sg420
I107
sbag376
(g416
g378
NtRp475
(dp476
g419
S'1'
sg420
I108
sbag376
(g416
g378
NtRp477
(dp478
g419
S'1'
sg420
I109
sbag376
(g416
g378
NtRp479
(dp480
g419
S'1'
sg420
I110
sbag376
(g416
g378
NtRp481
(dp482
g419
S'1'
sg420
I111
sbag376
(g416
g378
NtRp483
(dp484
g419
S'1'
sg420
I112
sbag376
(g416
g378
NtRp485
(dp486
g419
S'1'
sg420
I113
sbag376
(g416
g378
NtRp487
(dp488
g419
S'1'
sg420
I114
sbag376
(g416
g378
NtRp489
(dp490
g419
S'1'
sg420
I115
sbag376
(g416
g378
NtRp491
(dp492
g419
S'0'
sg420
I56
sbag376
(g416
g378
NtRp493
(dp494
g419
S'1'
sg420
I41
sbag376
(g416
g378
NtRp495
(dp496
g419
S'1'
sg420
I42
sbag376
(g416
g378
NtRp497
(dp498
g419
S'1'
sg420
I43
sbag376
(g416
g378
NtRp499
(dp500
g419
S'1'
sg420
I44
sbag376
(g416
g378
NtRp501
(dp502
g419
S'1'
sg420
I45
sbag376
(g416
g378
NtRp503
(dp504
g419
S'1'
sg420
I46
sbag376
(g416
g378
NtRp505
(dp506
g419
S'1'
sg420
I47
sbag376
(g416
g378
NtRp507
(dp508
g419
S'1'
sg420
I48
sbag376
(g416
g378
NtRp509
(dp510
g419
S'1'
sg420
I49
sbag376
(g416
g378
NtRp511
(dp512
g419
S'1'
sg420
I50
sbag376
(g416
g378
NtRp513
(dp514
g419
S'1'
sg420
I51
sbag376
(g416
g378
NtRp515
(dp516
g419
S'1'
sg420
I52
sbag376
(g416
g378
NtRp517
(dp518
g419
S'1'
sg420
I53
sbag376
(g416
g378
NtRp519
(dp520
g419
S'1'
sg420
I54
sbag376
(g416
g378
NtRp521
(dp522
g419
S'1'
sg420
I55
sbag376
(g416
g378
NtRp523
(dp524
g419
S'1'
sg420
I56
sbag376
(g416
g378
NtRp525
(dp526
g419
S'1'
sg420
I57
sbag376
(g416
g378
NtRp527
(dp528
g419
S'1'
sg420
I58
sbag376
(g416
g378
NtRp529
(dp530
g419
S'1'
sg420
I59
sbag376
(g416
g378
NtRp531
(dp532
g419
S'1'
sg420
I60
sbag376
(g416
g378
NtRp533
(dp534
g419
S'1'
sg420
I61
sbag376
(g416
g378
NtRp535
(dp536
g419
S'1'
sg420
I62
sbag376
(g416
g378
NtRp537
(dp538
g419
S'1'
sg420
I63
sbag376
(g416
g378
NtRp539
(dp540
g419
S'1'
sg420
I64
sbag376
(g416
g378
NtRp541
(dp542
g419
S'1'
sg420
I65
sbag376
(g416
g378
NtRp543
(dp544
g419
S'1'
sg420
I66
sbag376
(g416
g378
NtRp545
(dp546
g419
S'1'
sg420
I67
sbag376
(g416
g378
NtRp547
(dp548
g419
S'1'
sg420
I68
sbag376
(g416
g378
NtRp549
(dp550
g419
S'1'
sg420
I69
sbag376
(g416
g378
NtRp551
(dp552
g419
S'1'
sg420
I70
sbag376
(g416
g378
NtRp553
(dp554
g419
S'1'
sg420
I71
sbag376
(g416
g378
NtRp555
(dp556
g419
S'1'
sg420
I72
sbag376
(g416
g378
NtRp557
(dp558
g419
S'1'
sg420
I73
sbag376
(g416
g378
NtRp559
(dp560
g419
S'1'
sg420
I74
sbag376
(g416
g378
NtRp561
(dp562
g419
S'1'
sg420
I75
sbag376
(g416
g378
NtRp563
(dp564
g419
S'1'
sg420
I76
sbag376
(g416
g378
NtRp565
(dp566
g419
S'1'
sg420
I77
sbag376
(g416
g378
NtRp567
(dp568
g419
S'1'
sg420
I78
sbag376
(g416
g378
NtRp569
(dp570
g419
S'1'
sg420
I79
sbatRp571
ag391
((lp572
g376
(g416
g378
NtRp573
(dp574
g419
S'1'
sg420
I23
sbag376
(g416
g378
NtRp575
(dp576
g419
S'1'
sg420
I24
sbag376
(g416
g378
NtRp577
(dp578
g419
S'1'
sg420
I25
sbag376
(g416
g378
NtRp579
(dp580
g419
S'1'
sg420
I26
sbag376
(g416
g378
NtRp581
(dp582
g419
S'1'
sg420
I27
sbag376
(g416
g378
NtRp583
(dp584
g419
S'1'
sg420
I28
sbag376
(g416
g378
NtRp585
(dp586
g419
S'1'
sg420
I29
sbag376
(g416
g378
NtRp587
(dp588
g419
S'1'
sg420
I30
sbag376
(g416
g378
NtRp589
(dp590
g419
S'1'
sg420
I31
sbag376
(g416
g378
NtRp591
(dp592
g419
S'1'
sg420
I32
sbag376
(g416
g378
NtRp593
(dp594
g419
S'1'
sg420
I33
sbag376
(g416
g378
NtRp595
(dp596
g419
S'1'
sg420
I34
sbag376
(g416
g378
NtRp597
(dp598
g419
S'1'
sg420
I35
sbag376
(g416
g378
NtRp599
(dp600
g419
S'1'
sg420
I36
sbag376
(g416
g378
NtRp601
(dp602
g419
S'1'
sg420
I37
sbag376
(g416
g378
NtRp603
(dp604
g419
S'1'
sg420
I38
sbag376
(g416
g378
NtRp605
(dp606
g419
S'1'
sg420
I39
sbag376
(g416
g378
NtRp607
(dp608
g419
S'1'
sg420
I40
sbag493
ag376
(g416
g378
NtRp609
(dp610
g419
S'0'
sg420
I53
sbag376
(g416
g378
NtRp611
(dp612
g419
S'0'
sg420
I54
sbag376
(g416
g378
NtRp613
(dp614
g419
S'0'
sg420
I55
sbag491
atRp615
ag391
((ltRp616
ag391
((ltRp617
ag391
((ltRp618
ag391
((ltRp619
ag391
((ltRp620
ag391
((ltRp621
ag391
((ltRp622
ag391
((ltRp623
ag391
((ltRp624
ag391
((ltRp625
ag391
((ltRp626
ag391
((ltRp627
ag391
((ltRp628
ag391
((ltRp629
ag391
((ltRp630
ag391
((ltRp631
ag391
((ltRp632
ag391
((ltRp633
ag391
((ltRp634
ag391
((ltRp635
ag391
((ltRp636
ag391
((ltRp637
ag391
((ltRp638
ag391
((lp639
g376
(g416
g378
NtRp640
(dp641
g419
S'0'
sg420
I51
sbag376
(g416
g378
NtRp642
(dp643
g419
S'1'
sg420
I21
sbag376
(g416
g378
NtRp644
(dp645
g419
S'1'
sg420
I22
sbag376
(g416
g378
NtRp646
(dp647
g419
S'0'
sg420
I52
sbatRp648
ag391
((lp649
g609
ag646
ag644
ag573
atRp650
ag391
((ltRp651
ag391
((ltRp652
ag391
((ltRp653
ag391
((ltRp654
ag391
((ltRp655
ag391
((ltRp656
ag391
((ltRp657
ag391
((ltRp658
ag391
((ltRp659
ag391
((ltRp660
ag391
((ltRp661
ag391
((ltRp662
ag391
((ltRp663
ag391
((ltRp664
ag391
((ltRp665
ag391
((ltRp666
ag391
((ltRp667
ag391
((ltRp668
ag391
((ltRp669
ag391
((ltRp670
ag391
((ltRp671
ag391
((ltRp672
ag391
((ltRp673
ag391
((lp674
g640
ag642
atRp675
ag391
((ltRp676
ag391
((ltRp677
ag391
((ltRp678
ag391
((ltRp679
ag391
((ltRp680
ag391
((ltRp681
ag391
((ltRp682
ag391
((ltRp683
ag391
((ltRp684
ag391
((ltRp685
ag391
((ltRp686
ag391
((ltRp687
ag391
((ltRp688
ag391
((ltRp689
ag391
((ltRp690
ag391
((ltRp691
ag391
((ltRp692
ag391
((ltRp693
ag391
((ltRp694
ag391
((ltRp695
ag391
((ltRp696
ag391
((ltRp697
ag391
((ltRp698
ag391
((ltRp699
ag391
((lp700
g640
ag376
(g416
g378
NtRp701
(dp702
g419
S'0'
sg420
I50
sbag376
(g416
g378
NtRp703
(dp704
g419
S'1'
sg420
I20
sbag642
atRp705
ag391
((ltRp706
ag391
((ltRp707
ag391
((ltRp708
ag391
((ltRp709
ag391
((ltRp710
ag391
((ltRp711
ag391
((ltRp712
ag391
((ltRp713
ag391
((ltRp714
ag391
((ltRp715
ag391
((ltRp716
ag391
((ltRp717
ag391
((ltRp718
ag391
((ltRp719
ag391
((ltRp720
ag391
((ltRp721
ag391
((ltRp722
ag391
((ltRp723
ag391
((ltRp724
ag391
((ltRp725
ag391
((ltRp726
ag391
((ltRp727
ag391
((lp728
g376
(g416
g378
NtRp729
(dp730
g419
S'0'
sg420
I47
sbag376
(g416
g378
NtRp731
(dp732
g419
S'1'
sg420
I17
sbatRp733
ag391
((lp734
g729
ag731
ag376
(g416
g378
NtRp735
(dp736
g419
S'1'
sg420
I18
sbag376
(g416
g378
NtRp737
(dp738
g419
S'0'
sg420
I48
sbatRp739
ag391
((lp740
g737
ag735
ag376
(g416
g378
NtRp741
(dp742
g419
S'1'
sg420
I19
sbag703
ag376
(g416
g378
NtRp743
(dp744
g419
S'0'
sg420
I49
sbag701
atRp745
ag391
((ltRp746
ag391
((ltRp747
ag391
((ltRp748
ag391
((ltRp749
ag391
((ltRp750
ag391
((ltRp751
ag391
((ltRp752
ag391
((ltRp753
ag391
((ltRp754
ag391
((ltRp755
ag391
((ltRp756
ag391
((ltRp757
ag391
((ltRp758
ag391
((ltRp759
ag391
((ltRp760
ag391
((ltRp761
ag391
((ltRp762
ag391
((ltRp763
ag391
((ltRp764
ag391
((ltRp765
ag391
((ltRp766
ag391
((ltRp767
ag391
((lp768
g729
ag731
atRp769
ag391
((lp770
g729
ag731
atRp771
ag391
((ltRp772
ag391
((ltRp773
ag391
((ltRp774
ag391
((ltRp775
ag391
((ltRp776
ag391
((ltRp777
ag391
((ltRp778
ag391
((ltRp779
ag391
((ltRp780
ag391
((ltRp781
ag391
((ltRp782
ag391
((ltRp783
ag391
((ltRp784
ag391
((ltRp785
ag391
((ltRp786
ag391
((ltRp787
ag391
((ltRp788
ag391
((ltRp789
ag391
((ltRp790
ag391
((ltRp791
ag391
((ltRp792
ag391
((ltRp793
ag391
((ltRp794
ag391
((lp795
g376
(g416
g378
NtRp796
(dp797
g419
S'1'
sg420
I16
sbag731
ag729
ag376
(g416
g378
NtRp798
(dp799
g419
S'0'
sg420
I46
sbatRp800
ag391
((lp801
g729
ag731
atRp802
ag391
((ltRp803
ag391
((ltRp804
ag391
((ltRp805
ag391
((ltRp806
ag391
((ltRp807
ag391
((ltRp808
ag391
((ltRp809
ag391
((ltRp810
ag391
((ltRp811
ag391
((ltRp812
ag391
((ltRp813
ag391
((ltRp814
ag391
((ltRp815
ag391
((ltRp816
ag391
((ltRp817
ag391
((ltRp818
ag391
((ltRp819
ag391
((ltRp820
ag391
((ltRp821
ag391
((ltRp822
ag391
((ltRp823
ag391
((lp824
g376
(g416
g378
NtRp825
(dp826
g419
S'0'
sg420
I44
sbag376
(g416
g378
NtRp827
(dp828
g419
S'1'
sg420
I14
sbatRp829
ag391
((lp830
g376
(g416
g378
NtRp831
(dp832
g419
S'0'
sg420
I45
sbag825
ag827
ag376
(g416
g378
NtRp833
(dp834
g419
S'1'
sg420
I15
sbatRp835
ag391
((lp836
g796
ag798
ag831
ag833
atRp837
ag391
((ltRp838
ag391
((ltRp839
ag391
((ltRp840
ag391
((ltRp841
ag391
((ltRp842
ag391
((ltRp843
ag391
((ltRp844
ag391
((ltRp845
ag391
((ltRp846
ag391
((ltRp847
ag391
((ltRp848
ag391
((ltRp849
ag391
((ltRp850
ag391
((ltRp851
ag391
((ltRp852
ag391
((ltRp853
ag391
((ltRp854
ag391
((ltRp855
ag391
((ltRp856
ag391
((ltRp857
ag391
((ltRp858
ag391
((lp859
g376
(g416
g378
NtRp860
(dp861
g419
S'0'
sg420
I43
sbag376
(g416
g378
NtRp862
(dp863
g419
S'1'
sg420
I13
sbatRp864
ag391
((lp865
g860
ag862
ag827
ag825
atRp866
ag391
((lp867
g825
ag827
atRp868
ag391
((ltRp869
ag391
((ltRp870
ag391
((ltRp871
ag391
((ltRp872
ag391
((ltRp873
ag391
((ltRp874
ag391
((ltRp875
ag391
((ltRp876
ag391
((ltRp877
ag391
((ltRp878
ag391
((ltRp879
ag391
((lp880
g376
(g416
g378
NtRp881
(dp882
g419
S'0'
sg420
I37
sbag376
(g416
g378
NtRp883
(dp884
g419
S'1'
sg420
I7
sbatRp885
ag391
((lp886
g881
ag883
atRp887
ag391
((lp888
g881
ag883
atRp889
ag391
((lp890
g376
(g416
g378
NtRp891
(dp892
g419
S'1'
sg420
I8
sbag376
(g416
g378
NtRp893
(dp894
g419
S'0'
sg420
I38
sbag881
ag883
atRp895
ag391
((lp896
g891
ag893
atRp897
ag391
((lp898
g891
ag893
atRp899
ag391
((lp900
g891
ag893
atRp901
ag391
((lp902
g891
ag376
(g416
g378
NtRp903
(dp904
g419
S'1'
sg420
I9
sbag376
(g416
g378
NtRp905
(dp906
g419
S'0'
sg420
I39
sbag893
atRp907
ag391
((lp908
g905
ag903
atRp909
ag391
((lp910
g376
(g416
g378
NtRp911
(dp912
g419
S'0'
sg420
I40
sbag905
ag903
ag376
(g416
g378
NtRp913
(dp914
g419
S'1'
sg420
I10
sbag376
(g416
g378
NtRp915
(dp916
g419
S'1'
sg420
I11
sbag376
(g416
g378
NtRp917
(dp918
g419
S'0'
sg420
I41
sbatRp919
ag391
((lp920
g917
ag915
atRp921
ag391
((lp922
g376
(g416
g378
NtRp923
(dp924
g419
S'0'
sg420
I42
sbag376
(g416
g378
NtRp925
(dp926
g419
S'1'
sg420
I12
sbag917
ag915
ag860
ag862
atRp927
ag391
((lp928
g860
ag862
atRp929
ag391
((ltRp930
ag391
((ltRp931
ag391
((ltRp932
ag391
((ltRp933
ag391
((ltRp934
ag391
((lp935
g376
(g416
g378
NtRp936
(dp937
g419
S'1'
sg420
I1
sbag376
(g416
g378
NtRp938
(dp939
g419
S'1'
sg420
I2
sbag376
(g416
g378
NtRp940
(dp941
g419
S'1'
sg420
I0
sbag376
(g416
g378
NtRp942
(dp943
g419
S'0'
sg420
I0
sbag376
(g416
g378
NtRp944
(dp945
g419
S'0'
sg420
I1
sbag376
(g416
g378
NtRp946
(dp947
g419
S'0'
sg420
I2
sbag376
(g416
g378
NtRp948
(dp949
g419
S'1'
sg420
I4
sbag376
(g416
g378
NtRp950
(dp951
g419
S'0'
sg420
I4
sbag376
(g416
g378
NtRp952
(dp953
g419
S'0'
sg420
I5
sbag376
(g416
g378
NtRp954
(dp955
g419
S'0'
sg420
I6
sbag376
(g416
g378
NtRp956
(dp957
g419
S'0'
sg420
I7
sbag376
(g416
g378
NtRp958
(dp959
g419
S'0'
sg420
I3
sbag376
(g416
g378
NtRp960
(dp961
g419
S'0'
sg420
I9
sbag376
(g416
g378
NtRp962
(dp963
g419
S'0'
sg420
I10
sbag376
(g416
g378
NtRp964
(dp965
g419
S'0'
sg420
I11
sbag376
(g416
g378
NtRp966
(dp967
g419
S'0'
sg420
I12
sbag376
(g416
g378
NtRp968
(dp969
g419
S'0'
sg420
I13
sbag376
(g416
g378
NtRp970
(dp971
g419
S'0'
sg420
I14
sbag376
(g416
g378
NtRp972
(dp973
g419
S'0'
sg420
I15
sbag376
(g416
g378
NtRp974
(dp975
g419
S'0'
sg420
I16
sbag376
(g416
g378
NtRp976
(dp977
g419
S'0'
sg420
I17
sbag376
(g416
g378
NtRp978
(dp979
g419
S'0'
sg420
I18
sbag376
(g416
g378
NtRp980
(dp981
g419
S'0'
sg420
I19
sbag376
(g416
g378
NtRp982
(dp983
g419
S'0'
sg420
I20
sbag376
(g416
g378
NtRp984
(dp985
g419
S'0'
sg420
I21
sbag376
(g416
g378
NtRp986
(dp987
g419
S'0'
sg420
I22
sbag376
(g416
g378
NtRp988
(dp989
g419
S'0'
sg420
I23
sbag376
(g416
g378
NtRp990
(dp991
g419
S'0'
sg420
I24
sbag376
(g416
g378
NtRp992
(dp993
g419
S'0'
sg420
I25
sbag376
(g416
g378
NtRp994
(dp995
g419
S'0'
sg420
I26
sbag376
(g416
g378
NtRp996
(dp997
g419
S'0'
sg420
I27
sbag376
(g416
g378
NtRp998
(dp999
g419
S'1'
sg420
I3
sbag376
(g416
g378
NtRp1000
(dp1001
g419
S'0'
sg420
I29
sbag376
(g416
g378
NtRp1002
(dp1003
g419
S'0'
sg420
I28
sbag376
(g416
g378
NtRp1004
(dp1005
g419
S'0'
sg420
I31
sbag376
(g416
g378
NtRp1006
(dp1007
g419
S'0'
sg420
I32
sbag376
(g416
g378
NtRp1008
(dp1009
g419
S'0'
sg420
I33
sbag376
(g416
g378
NtRp1010
(dp1011
g419
S'0'
sg420
I34
sbag376
(g416
g378
NtRp1012
(dp1013
g419
S'0'
sg420
I8
sbag376
(g416
g378
NtRp1014
(dp1015
g419
S'0'
sg420
I30
sbatRp1016
ag391
((lp1017
g376
(g416
g378
NtRp1018
(dp1019
g419
S'0'
sg420
I35
sbag1010
ag948
ag376
(g416
g378
NtRp1020
(dp1021
g419
S'1'
sg420
I5
sbatRp1022
ag391
((lp1023
g1018
ag1020
atRp1024
ag391
((lp1025
g1018
ag1020
ag376
(g416
g378
NtRp1026
(dp1027
g419
S'1'
sg420
I6
sbag376
(g416
g378
NtRp1028
(dp1029
g419
S'0'
sg420
I36
sbatRp1030
ag391
((lp1031
g1028
ag1026
atRp1032
ag391
((lp1033
g1028
ag1026
atRp1034
ag391
((lp1035
g1028
ag1026
atRp1036
ag391
((lp1037
g881
ag1028
ag1026
ag883
atRp1038
ag391
((lp1039
g881
ag883
atRp1040
ag391
((lp1041
g881
ag883
atRp1042
ag391
((lp1043
g881
ag883
atRp1044
ag391
((ltRp1045
ag391
((ltRp1046
ag391
((ltRp1047
ag391
((ltRp1048
ag391
((ltRp1049
ag391
((ltRp1050
ag391
((ltRp1051
ag391
((ltRp1052
ag391
((ltRp1053
ag391
((ltRp1054
ag391
((ltRp1055
ag391
((ltRp1056
ag391
((ltRp1057
ag391
((ltRp1058
asS'si_gridsquaresys'
p1059
g376
(cgrid
GridSquareSystem
p1060
g378
NtRp1061
(dp1062
S'lngstep'
p1063
F0.00125
sS'southwest_gridsquare'
p1064
g376
(cgrid
GridSquare
p1065
g378
NtRp1066
(dp1067
S'sys'
p1068
g1061
sS'gridlat'
p1069
I34
sS'gridlng'
p1070
I-20
sbsS'lngref'
p1071
F-79.457939102255295
sS'latstep'
p1072
F0.00087500000000000002
sS'latref'
p1073
F43.626966968592633
sS'northeast_gridsquare'
p1074
g376
(g1065
g378
NtRp1075
(dp1076
g1068
g1061
sg1069
I44
sg1070
I4
sbsbsS'si_plinename_to_gridsquareidxes'
p1077
(dp1078
S'1'
g391
((lp1079
I256
aI257
aI258
aI259
aI260
aI146
aI147
aI23
aI24
aI171
aI172
aI48
aI49
aI194
aI195
aI196
aI73
aI218
aI219
aI220
aI122
aI98
aI123
aI232
aI233
aI234
aI235
aI236
aI237
aI238
aI239
aI240
aI241
aI242
aI243
aI244
aI121
aI250
aI251
aI252
aI253
aI254
aI255
atRp1080
sS'0'
g391
((lp1081
I256
aI257
aI258
aI259
aI260
aI146
aI147
aI23
aI24
aI171
aI172
aI48
aI49
aI194
aI195
aI196
aI73
aI218
aI219
aI220
aI122
aI98
aI123
aI232
aI233
aI234
aI235
aI236
aI237
aI238
aI239
aI240
aI241
aI242
aI243
aI244
aI121
aI250
aI251
aI252
aI253
aI254
aI255
atRp1082
ssbsS'version'
p1083
I0
sS'datazoom_to_dir_to_routeptaddr_to_mofr'
p1084
(dp1085
I0
(lp1086
(lp1087
I0
aI1927
aI2595
aI2984
aI3081
aa(lp1088
I0
aI1927
aI2595
aI2949
aI3081
aasN(lp1089
(lp1090
I0
aF2.2964600025907669
aF4.5929200055934851
aF6.8893800079080432
aF9.1858400119752268
aF11.482300015375312
aF13.778760017846365
aF16.075220020990894
aF18.371680023206288
aF20.668140027089908
aF22.964600028703511
aF25.286469706718158
aF27.587124247414977
aF29.908993970496233
aF32.209648555973047
aF34.531518324364654
aF36.832172955399862
aF39.154042766937991
aF41.454697443531593
aF43.776567298932548
aF46.077222021084545
aF48.399091921552106
aF50.699746689839102
aF53.021616633696922
aF55.322271447167502
aF57.644141436091928
aF59.944796294140694
aF62.266666327415422
aF64.567321231022575
aF66.88919130887642
aF69.189846256859965
aF71.511716379064111
aF73.812371373384451
aF76.134241540411452
aF78.434896578531578
aF198.77380212059822
aF335.48729496694807
aF790.93177397585168
aF1026.994379315573
aF1490.1929738481717
aF1678.3462804082201
aF1712.5136308266856
aF1856.9540938089879
aF1927.0708033994099
aF2008.7010020760315
aF2157.1426571138109
aF2210.5535235109155
aF2309.5785125441225
aF2487.2629801382786
aF2569.5884033722
aF2595.4400160541486
aF2685.8774906144063
aF2816.8402692160294
aF2839.7643394220063
aF2949.7615136951886
aF2968.5384926768079
aF2984.1868155847287
aF3081.6313759053014
aa(lp1091
I0
aF15.58975927119908
aF32.27932153939701
aF60.705527080694523
aF78.434176529004617
aF198.77308207107126
aF335.48657491742108
aF790.93105392632469
aF1026.9936592660461
aF1490.1922537986447
aF1678.3455603586931
aF1712.5129107771586
aF1856.9533737594609
aF1927.0700833498829
aF2008.7002820265045
aF2157.1419370642839
aF2210.5528034613885
aF2309.5777924945955
aF2487.2622600887516
aF2569.587683322673
aF2595.4392960046216
aF2685.8767705648793
aF2816.8395491665024
aF2839.7636193724793
aF2949.7607936456616
aF2951.2040370789432
aF2952.6297860448753
aF2954.0730296281945
aF2955.498778686067
aF2956.9420224195446
aF2958.3677715700355
aF2959.8110154524215
aF2961.2367646955308
aF2962.6800087280753
aF2964.1057580625629
aF2965.5490022470394
aF2966.9747516723428
aF2968.4179960048409
aF2969.843745523945
aF2971.2869900055935
aF2972.7127396166957
aF2974.1559842491479
aF2975.5817339516861
aF2977.024978732401
aF2978.45072852874
aF2979.8939734582427
aF2981.3197233454553
aF2982.7629684260028
aF2984.1887184057759
aF2985.6319636355943
aF2987.0577137085479
aF2988.5009590892905
aF2989.9267092524401
aF2991.3699547820911
aF2992.7957050384794
aF2994.2389507172802
aF2995.6647010662869
aF2997.1079468952453
aF2998.5336973361345
aF2999.9769433171459
aF3001.4026938494712
aF3002.8459399783828
aF3004.2716906033843
aF3005.7149368823325
aF3007.1406875992743
aF3008.5839340293883
aF3010.0096848383287
aF3011.4529314173506
aF3012.8786823182891
aF3014.3219290473476
aF3015.7476800403424
aF3017.1909269183093
aF3018.61667800336
aF3020.0599250313635
aF3021.485676208355
aF3022.9289233877653
aF3024.3546746578795
aF3025.7979219840613
aF3027.223673347472
aF3028.6669208249396
aF3030.0926722796708
aF3031.5359199068125
aF3032.9616714524755
aF3034.4049192291291
aF3035.8306708702216
aF3037.2739187959037
aF3038.6996705284323
aF3040.1429186049172
aF3041.5686704283198
aF3043.0119186539537
aF3044.4376705710993
aF3045.8809189476565
aF3047.3066709538157
aF3048.7499194816587
aF3050.175671582123
aF3051.6189202579867
aF3053.0446724511271
aF3054.487921277027
aF3055.9136735615461
aF3057.3569225381279
aF3058.7826749135211
aF3060.2259240383646
aF3061.6516765075585
aF3063.0949257824382
aF3064.5206783435724
aF3065.9639277706247
aF3067.3896804231372
aF3068.8213971745113
aF3070.2378137579731
aF3071.6695304803952
aF3073.085947127126
aF3074.5176638185894
aF3075.9340805300108
aF3077.3657971908519
aF3078.7822139665591
aF3080.2139305974429
aF3081.6303474378401
aasI2
(lp1092
(lp1093
I0
aI22
aI76
aI790
aI1678
aI1712
aI1927
aI2157
aI2210
aI2595
aI2816
aI2984
aI3081
aa(lp1094
I0
aI15
aI32
aI60
aI78
aI790
aI1678
aI1712
aI1927
aI2157
aI2210
aI2595
aI2816
aI2949
aI3065
aI3081
aasI3
(lp1095
(lp1096
I0
aI22
aI76
aI198
aI790
aI1026
aI1490
aI1678
aI1712
aI1927
aI2008
aI2157
aI2210
aI2309
aI2569
aI2595
aI2816
aI2984
aI3081
aa(lp1097
I0
aI15
aI32
aI60
aI78
aI198
aI790
aI1026
aI1490
aI1678
aI1712
aI1927
aI2008
aI2157
aI2210
aI2309
aI2569
aI2595
aI2816
aI2949
aI3065
aI3068
aI3081
aasI1
(lp1098
(lp1099
I0
aI76
aI1678
aI1927
aI2210
aI2595
aI2984
aI3081
aa(lp1100
I0
aI78
aI1678
aI1927
aI2210
aI2595
aI2949
aI3081
aassb.